

Microchip MPLAB XC8 Assembler V2.20 build 20200408173844 
                                                                                               Tue Aug 18 01:58:24 2020

Microchip MPLAB XC8 C Compiler v2.20 (Free license) build 20200408173844 Og1 
     1                           	processor	16F15313
     2                           	pagewidth 120
     3                           	opt	flic
     4                           	psect	nvBANK0,global,class=BANK0,space=1,delta=1,noexec
     5                           	psect	cinit,global,class=CODE,merge=1,delta=2
     6                           	psect	bssCOMMON,global,class=COMMON,space=1,delta=1,noexec
     7                           	psect	bssBANK0,global,class=BANK0,space=1,delta=1,noexec
     8                           	psect	bssBANK1,global,class=BANK1,space=1,delta=1,noexec
     9                           	psect	bssBANK2,global,class=BANK2,space=1,delta=1,noexec
    10                           	psect	clrtext,global,class=CODE,delta=2
    11                           	psect	cstackCOMMON,global,class=COMMON,space=1,delta=1,noexec
    12                           	psect	cstackBANK0,global,class=BANK0,space=1,delta=1,noexec
    13                           	psect	maintext,global,class=CODE,merge=1,split=1,delta=2
    14                           	psect	text1,local,class=CODE,merge=1,inline,delta=2
    15                           	psect	text2,local,class=CODE,merge=1,inline,delta=2
    16                           	psect	text3,local,class=CODE,merge=1,delta=2
    17                           	psect	text4,local,class=CODE,merge=1,delta=2
    18                           	psect	text5,local,class=CODE,merge=1,delta=2
    19                           	psect	text6,local,class=CODE,merge=1,delta=2
    20                           	psect	text7,local,class=CODE,merge=1,delta=2
    21                           	psect	text8,local,class=CODE,merge=1,delta=2
    22                           	psect	text9,local,class=CODE,merge=1,delta=2
    23                           	psect	text10,local,class=CODE,merge=1,delta=2
    24                           	psect	text11,local,class=CODE,merge=1,delta=2
    25                           	psect	text12,local,class=CODE,merge=1,delta=2
    26                           	psect	text13,local,class=CODE,merge=1,delta=2
    27                           	psect	intentry,global,class=CODE,delta=2
    28                           	psect	text15,local,class=CODE,merge=1,delta=2
    29                           	psect	text16,local,class=CODE,merge=1,delta=2
    30                           	psect	config,global,abs,ovrld,class=CONFIG,space=4,delta=2,noexec
    31                           	dabs	1,0x7E,2
    32  0000                     
    33                           ; Version 2.20
    34                           ; Generated 30/04/2020 GMT
    35                           ; 
    36                           ; Copyright © 2020, Microchip Technology Inc. and its subsidiaries ("Microchip")
    37                           ; All rights reserved.
    38                           ; 
    39                           ; This software is developed by Microchip Technology Inc. and its subsidiaries ("Microch
      +                          ip").
    40                           ; 
    41                           ; Redistribution and use in source and binary forms, with or without modification, are
    42                           ; permitted provided that the following conditions are met:
    43                           ; 
    44                           ;     1. Redistributions of source code must retain the above copyright notice, this lis
      +                          t of
    45                           ;        conditions and the following disclaimer.
    46                           ; 
    47                           ;     2. Redistributions in binary form must reproduce the above copyright notice, this 
      +                          list
    48                           ;        of conditions and the following disclaimer in the documentation and/or other
    49                           ;        materials provided with the distribution.
    50                           ; 
    51                           ;     3. Microchip's name may not be used to endorse or promote products derived from th
      +                          is
    52                           ;        software without specific prior written permission.
    53                           ; 
    54                           ; THIS SOFTWARE IS PROVIDED BY MICROCHIP "AS IS" AND ANY EXPRESS OR IMPLIED WARRANTIES,
    55                           ; INCLUDING, BUT NOT LIMITED TO, THE IMPLIED WARRANTIES OF MERCHANTABILITY AND FITNESS F
      +                          OR
    56                           ; PURPOSE ARE DISCLAIMED.  IN NO EVENT SHALL MICROCHIP BE LIABLE FOR ANY DIRECT, INDIREC
      +                          T,
    57                           ; INCIDENTAL, SPECIAL, EXEMPLARY, OR CONSEQUENTIAL DAMAGES (INCLUDING BUT NOT LIMITED TO
    58                           ; PROCUREMENT OF SUBSTITUTE GOODS OR SERVICES; LOSS OF USE, DATA OR PROFITS; OR BUSINESS
    59                           ; INTERRUPTION) HOWSOEVER CAUSED AND ON ANY THEORY OF LIABILITY, WHETHER IN CONTRACT, ST
      +                          RICT
    60                           ; LIABILITY, OR TORT (INCLUDING NEGLIGENCE OR OTHERWISE) ARISING IN ANY WAY OUT OF THE U
      +                          SE OF
    61                           ; THIS SOFTWARE, EVEN IF ADVISED OF THE POSSIBILITY OF SUCH DAMAGE.
    62                           ; 
    63                           ; 
    64                           ; Code-generator required, PIC16F15313 Definitions
    65                           ; 
    66                           ; SFR Addresses
    67  0000                     	;# 
    68  0001                     	;# 
    69  0002                     	;# 
    70  0003                     	;# 
    71  0004                     	;# 
    72  0005                     	;# 
    73  0006                     	;# 
    74  0007                     	;# 
    75  0008                     	;# 
    76  0009                     	;# 
    77  000A                     	;# 
    78  000B                     	;# 
    79  000C                     	;# 
    80  0012                     	;# 
    81  0018                     	;# 
    82  009B                     	;# 
    83  009B                     	;# 
    84  009C                     	;# 
    85  009D                     	;# 
    86  009E                     	;# 
    87  009F                     	;# 
    88  0119                     	;# 
    89  0119                     	;# 
    90  0119                     	;# 
    91  011A                     	;# 
    92  011A                     	;# 
    93  011A                     	;# 
    94  011B                     	;# 
    95  011B                     	;# 
    96  011B                     	;# 
    97  011B                     	;# 
    98  011B                     	;# 
    99  011C                     	;# 
   100  011C                     	;# 
   101  011C                     	;# 
   102  011D                     	;# 
   103  011D                     	;# 
   104  011D                     	;# 
   105  011E                     	;# 
   106  011E                     	;# 
   107  011E                     	;# 
   108  011F                     	;# 
   109  011F                     	;# 
   110  011F                     	;# 
   111  011F                     	;# 
   112  011F                     	;# 
   113  018C                     	;# 
   114  018D                     	;# 
   115  018E                     	;# 
   116  018F                     	;# 
   117  0190                     	;# 
   118  0191                     	;# 
   119  0192                     	;# 
   120  020C                     	;# 
   121  020C                     	;# 
   122  020D                     	;# 
   123  020E                     	;# 
   124  020F                     	;# 
   125  020F                     	;# 
   126  0210                     	;# 
   127  0210                     	;# 
   128  0211                     	;# 
   129  0211                     	;# 
   130  028C                     	;# 
   131  028C                     	;# 
   132  028D                     	;# 
   133  028D                     	;# 
   134  028E                     	;# 
   135  028F                     	;# 
   136  0290                     	;# 
   137  0291                     	;# 
   138  030C                     	;# 
   139  030C                     	;# 
   140  030D                     	;# 
   141  030E                     	;# 
   142  030F                     	;# 
   143  0310                     	;# 
   144  0310                     	;# 
   145  0311                     	;# 
   146  0312                     	;# 
   147  0313                     	;# 
   148  0314                     	;# 
   149  0314                     	;# 
   150  0315                     	;# 
   151  0316                     	;# 
   152  0318                     	;# 
   153  0318                     	;# 
   154  0319                     	;# 
   155  031A                     	;# 
   156  031C                     	;# 
   157  031C                     	;# 
   158  031D                     	;# 
   159  031E                     	;# 
   160  038C                     	;# 
   161  038C                     	;# 
   162  038D                     	;# 
   163  038E                     	;# 
   164  058C                     	;# 
   165  058C                     	;# 
   166  058D                     	;# 
   167  058E                     	;# 
   168  058F                     	;# 
   169  058F                     	;# 
   170  0590                     	;# 
   171  0591                     	;# 
   172  0592                     	;# 
   173  0593                     	;# 
   174  059C                     	;# 
   175  059C                     	;# 
   176  059D                     	;# 
   177  059D                     	;# 
   178  059E                     	;# 
   179  059F                     	;# 
   180  060C                     	;# 
   181  060D                     	;# 
   182  060E                     	;# 
   183  060F                     	;# 
   184  0610                     	;# 
   185  0611                     	;# 
   186  0612                     	;# 
   187  0613                     	;# 
   188  0614                     	;# 
   189  070C                     	;# 
   190  070D                     	;# 
   191  070E                     	;# 
   192  070F                     	;# 
   193  0710                     	;# 
   194  0711                     	;# 
   195  0712                     	;# 
   196  0713                     	;# 
   197  0716                     	;# 
   198  0717                     	;# 
   199  0718                     	;# 
   200  0719                     	;# 
   201  071A                     	;# 
   202  071B                     	;# 
   203  071C                     	;# 
   204  071D                     	;# 
   205  0796                     	;# 
   206  0797                     	;# 
   207  0798                     	;# 
   208  0799                     	;# 
   209  079A                     	;# 
   210  079B                     	;# 
   211  080C                     	;# 
   212  080D                     	;# 
   213  080E                     	;# 
   214  080F                     	;# 
   215  0810                     	;# 
   216  0811                     	;# 
   217  0812                     	;# 
   218  0813                     	;# 
   219  0814                     	;# 
   220  081A                     	;# 
   221  081A                     	;# 
   222  081B                     	;# 
   223  081C                     	;# 
   224  081C                     	;# 
   225  081D                     	;# 
   226  081E                     	;# 
   227  081F                     	;# 
   228  088C                     	;# 
   229  088D                     	;# 
   230  088E                     	;# 
   231  088F                     	;# 
   232  0890                     	;# 
   233  0891                     	;# 
   234  0892                     	;# 
   235  0893                     	;# 
   236  0895                     	;# 
   237  0896                     	;# 
   238  090C                     	;# 
   239  090E                     	;# 
   240  090F                     	;# 
   241  091F                     	;# 
   242  098F                     	;# 
   243  098F                     	;# 
   244  0990                     	;# 
   245  0991                     	;# 
   246  0992                     	;# 
   247  0993                     	;# 
   248  1E0F                     	;# 
   249  1E10                     	;# 
   250  1E11                     	;# 
   251  1E12                     	;# 
   252  1E13                     	;# 
   253  1E14                     	;# 
   254  1E15                     	;# 
   255  1E16                     	;# 
   256  1E17                     	;# 
   257  1E18                     	;# 
   258  1E19                     	;# 
   259  1E1A                     	;# 
   260  1E1B                     	;# 
   261  1E1C                     	;# 
   262  1E1D                     	;# 
   263  1E1E                     	;# 
   264  1E1F                     	;# 
   265  1E20                     	;# 
   266  1E21                     	;# 
   267  1E22                     	;# 
   268  1E23                     	;# 
   269  1E24                     	;# 
   270  1E25                     	;# 
   271  1E26                     	;# 
   272  1E27                     	;# 
   273  1E28                     	;# 
   274  1E29                     	;# 
   275  1E2A                     	;# 
   276  1E2B                     	;# 
   277  1E2C                     	;# 
   278  1E2D                     	;# 
   279  1E2E                     	;# 
   280  1E2F                     	;# 
   281  1E30                     	;# 
   282  1E31                     	;# 
   283  1E32                     	;# 
   284  1E33                     	;# 
   285  1E34                     	;# 
   286  1E35                     	;# 
   287  1E36                     	;# 
   288  1E37                     	;# 
   289  1E8F                     	;# 
   290  1E90                     	;# 
   291  1E91                     	;# 
   292  1E92                     	;# 
   293  1E93                     	;# 
   294  1E9C                     	;# 
   295  1EA1                     	;# 
   296  1EA2                     	;# 
   297  1EB1                     	;# 
   298  1EBB                     	;# 
   299  1EBC                     	;# 
   300  1EBD                     	;# 
   301  1EBE                     	;# 
   302  1EC3                     	;# 
   303  1EC5                     	;# 
   304  1EC6                     	;# 
   305  1EC7                     	;# 
   306  1ECB                     	;# 
   307  1ECC                     	;# 
   308  1F10                     	;# 
   309  1F11                     	;# 
   310  1F12                     	;# 
   311  1F13                     	;# 
   312  1F14                     	;# 
   313  1F15                     	;# 
   314  1F38                     	;# 
   315  1F39                     	;# 
   316  1F3A                     	;# 
   317  1F3B                     	;# 
   318  1F3C                     	;# 
   319  1F3D                     	;# 
   320  1F3E                     	;# 
   321  1F3F                     	;# 
   322  1FE4                     	;# 
   323  1FE5                     	;# 
   324  1FE6                     	;# 
   325  1FE7                     	;# 
   326  1FE8                     	;# 
   327  1FE8                     	;# 
   328  1FE9                     	;# 
   329  1FEA                     	;# 
   330  1FEA                     	;# 
   331  1FEB                     	;# 
   332  1FED                     	;# 
   333  1FEE                     	;# 
   334  1FEF                     	;# 
   335  0000                     	;# 
   336  0001                     	;# 
   337  0002                     	;# 
   338  0003                     	;# 
   339  0004                     	;# 
   340  0005                     	;# 
   341  0006                     	;# 
   342  0007                     	;# 
   343  0008                     	;# 
   344  0009                     	;# 
   345  000A                     	;# 
   346  000B                     	;# 
   347  000C                     	;# 
   348  0012                     	;# 
   349  0018                     	;# 
   350  009B                     	;# 
   351  009B                     	;# 
   352  009C                     	;# 
   353  009D                     	;# 
   354  009E                     	;# 
   355  009F                     	;# 
   356  0119                     	;# 
   357  0119                     	;# 
   358  0119                     	;# 
   359  011A                     	;# 
   360  011A                     	;# 
   361  011A                     	;# 
   362  011B                     	;# 
   363  011B                     	;# 
   364  011B                     	;# 
   365  011B                     	;# 
   366  011B                     	;# 
   367  011C                     	;# 
   368  011C                     	;# 
   369  011C                     	;# 
   370  011D                     	;# 
   371  011D                     	;# 
   372  011D                     	;# 
   373  011E                     	;# 
   374  011E                     	;# 
   375  011E                     	;# 
   376  011F                     	;# 
   377  011F                     	;# 
   378  011F                     	;# 
   379  011F                     	;# 
   380  011F                     	;# 
   381  018C                     	;# 
   382  018D                     	;# 
   383  018E                     	;# 
   384  018F                     	;# 
   385  0190                     	;# 
   386  0191                     	;# 
   387  0192                     	;# 
   388  020C                     	;# 
   389  020C                     	;# 
   390  020D                     	;# 
   391  020E                     	;# 
   392  020F                     	;# 
   393  020F                     	;# 
   394  0210                     	;# 
   395  0210                     	;# 
   396  0211                     	;# 
   397  0211                     	;# 
   398  028C                     	;# 
   399  028C                     	;# 
   400  028D                     	;# 
   401  028D                     	;# 
   402  028E                     	;# 
   403  028F                     	;# 
   404  0290                     	;# 
   405  0291                     	;# 
   406  030C                     	;# 
   407  030C                     	;# 
   408  030D                     	;# 
   409  030E                     	;# 
   410  030F                     	;# 
   411  0310                     	;# 
   412  0310                     	;# 
   413  0311                     	;# 
   414  0312                     	;# 
   415  0313                     	;# 
   416  0314                     	;# 
   417  0314                     	;# 
   418  0315                     	;# 
   419  0316                     	;# 
   420  0318                     	;# 
   421  0318                     	;# 
   422  0319                     	;# 
   423  031A                     	;# 
   424  031C                     	;# 
   425  031C                     	;# 
   426  031D                     	;# 
   427  031E                     	;# 
   428  038C                     	;# 
   429  038C                     	;# 
   430  038D                     	;# 
   431  038E                     	;# 
   432  058C                     	;# 
   433  058C                     	;# 
   434  058D                     	;# 
   435  058E                     	;# 
   436  058F                     	;# 
   437  058F                     	;# 
   438  0590                     	;# 
   439  0591                     	;# 
   440  0592                     	;# 
   441  0593                     	;# 
   442  059C                     	;# 
   443  059C                     	;# 
   444  059D                     	;# 
   445  059D                     	;# 
   446  059E                     	;# 
   447  059F                     	;# 
   448  060C                     	;# 
   449  060D                     	;# 
   450  060E                     	;# 
   451  060F                     	;# 
   452  0610                     	;# 
   453  0611                     	;# 
   454  0612                     	;# 
   455  0613                     	;# 
   456  0614                     	;# 
   457  070C                     	;# 
   458  070D                     	;# 
   459  070E                     	;# 
   460  070F                     	;# 
   461  0710                     	;# 
   462  0711                     	;# 
   463  0712                     	;# 
   464  0713                     	;# 
   465  0716                     	;# 
   466  0717                     	;# 
   467  0718                     	;# 
   468  0719                     	;# 
   469  071A                     	;# 
   470  071B                     	;# 
   471  071C                     	;# 
   472  071D                     	;# 
   473  0796                     	;# 
   474  0797                     	;# 
   475  0798                     	;# 
   476  0799                     	;# 
   477  079A                     	;# 
   478  079B                     	;# 
   479  080C                     	;# 
   480  080D                     	;# 
   481  080E                     	;# 
   482  080F                     	;# 
   483  0810                     	;# 
   484  0811                     	;# 
   485  0812                     	;# 
   486  0813                     	;# 
   487  0814                     	;# 
   488  081A                     	;# 
   489  081A                     	;# 
   490  081B                     	;# 
   491  081C                     	;# 
   492  081C                     	;# 
   493  081D                     	;# 
   494  081E                     	;# 
   495  081F                     	;# 
   496  088C                     	;# 
   497  088D                     	;# 
   498  088E                     	;# 
   499  088F                     	;# 
   500  0890                     	;# 
   501  0891                     	;# 
   502  0892                     	;# 
   503  0893                     	;# 
   504  0895                     	;# 
   505  0896                     	;# 
   506  090C                     	;# 
   507  090E                     	;# 
   508  090F                     	;# 
   509  091F                     	;# 
   510  098F                     	;# 
   511  098F                     	;# 
   512  0990                     	;# 
   513  0991                     	;# 
   514  0992                     	;# 
   515  0993                     	;# 
   516  1E0F                     	;# 
   517  1E10                     	;# 
   518  1E11                     	;# 
   519  1E12                     	;# 
   520  1E13                     	;# 
   521  1E14                     	;# 
   522  1E15                     	;# 
   523  1E16                     	;# 
   524  1E17                     	;# 
   525  1E18                     	;# 
   526  1E19                     	;# 
   527  1E1A                     	;# 
   528  1E1B                     	;# 
   529  1E1C                     	;# 
   530  1E1D                     	;# 
   531  1E1E                     	;# 
   532  1E1F                     	;# 
   533  1E20                     	;# 
   534  1E21                     	;# 
   535  1E22                     	;# 
   536  1E23                     	;# 
   537  1E24                     	;# 
   538  1E25                     	;# 
   539  1E26                     	;# 
   540  1E27                     	;# 
   541  1E28                     	;# 
   542  1E29                     	;# 
   543  1E2A                     	;# 
   544  1E2B                     	;# 
   545  1E2C                     	;# 
   546  1E2D                     	;# 
   547  1E2E                     	;# 
   548  1E2F                     	;# 
   549  1E30                     	;# 
   550  1E31                     	;# 
   551  1E32                     	;# 
   552  1E33                     	;# 
   553  1E34                     	;# 
   554  1E35                     	;# 
   555  1E36                     	;# 
   556  1E37                     	;# 
   557  1E8F                     	;# 
   558  1E90                     	;# 
   559  1E91                     	;# 
   560  1E92                     	;# 
   561  1E93                     	;# 
   562  1E9C                     	;# 
   563  1EA1                     	;# 
   564  1EA2                     	;# 
   565  1EB1                     	;# 
   566  1EBB                     	;# 
   567  1EBC                     	;# 
   568  1EBD                     	;# 
   569  1EBE                     	;# 
   570  1EC3                     	;# 
   571  1EC5                     	;# 
   572  1EC6                     	;# 
   573  1EC7                     	;# 
   574  1ECB                     	;# 
   575  1ECC                     	;# 
   576  1F10                     	;# 
   577  1F11                     	;# 
   578  1F12                     	;# 
   579  1F13                     	;# 
   580  1F14                     	;# 
   581  1F15                     	;# 
   582  1F38                     	;# 
   583  1F39                     	;# 
   584  1F3A                     	;# 
   585  1F3B                     	;# 
   586  1F3C                     	;# 
   587  1F3D                     	;# 
   588  1F3E                     	;# 
   589  1F3F                     	;# 
   590  1FE4                     	;# 
   591  1FE5                     	;# 
   592  1FE6                     	;# 
   593  1FE7                     	;# 
   594  1FE8                     	;# 
   595  1FE8                     	;# 
   596  1FE9                     	;# 
   597  1FEA                     	;# 
   598  1FEA                     	;# 
   599  1FEB                     	;# 
   600  1FED                     	;# 
   601  1FEE                     	;# 
   602  1FEF                     	;# 
   603  0000                     	;# 
   604  0001                     	;# 
   605  0002                     	;# 
   606  0003                     	;# 
   607  0004                     	;# 
   608  0005                     	;# 
   609  0006                     	;# 
   610  0007                     	;# 
   611  0008                     	;# 
   612  0009                     	;# 
   613  000A                     	;# 
   614  000B                     	;# 
   615  000C                     	;# 
   616  0012                     	;# 
   617  0018                     	;# 
   618  009B                     	;# 
   619  009B                     	;# 
   620  009C                     	;# 
   621  009D                     	;# 
   622  009E                     	;# 
   623  009F                     	;# 
   624  0119                     	;# 
   625  0119                     	;# 
   626  0119                     	;# 
   627  011A                     	;# 
   628  011A                     	;# 
   629  011A                     	;# 
   630  011B                     	;# 
   631  011B                     	;# 
   632  011B                     	;# 
   633  011B                     	;# 
   634  011B                     	;# 
   635  011C                     	;# 
   636  011C                     	;# 
   637  011C                     	;# 
   638  011D                     	;# 
   639  011D                     	;# 
   640  011D                     	;# 
   641  011E                     	;# 
   642  011E                     	;# 
   643  011E                     	;# 
   644  011F                     	;# 
   645  011F                     	;# 
   646  011F                     	;# 
   647  011F                     	;# 
   648  011F                     	;# 
   649  018C                     	;# 
   650  018D                     	;# 
   651  018E                     	;# 
   652  018F                     	;# 
   653  0190                     	;# 
   654  0191                     	;# 
   655  0192                     	;# 
   656  020C                     	;# 
   657  020C                     	;# 
   658  020D                     	;# 
   659  020E                     	;# 
   660  020F                     	;# 
   661  020F                     	;# 
   662  0210                     	;# 
   663  0210                     	;# 
   664  0211                     	;# 
   665  0211                     	;# 
   666  028C                     	;# 
   667  028C                     	;# 
   668  028D                     	;# 
   669  028D                     	;# 
   670  028E                     	;# 
   671  028F                     	;# 
   672  0290                     	;# 
   673  0291                     	;# 
   674  030C                     	;# 
   675  030C                     	;# 
   676  030D                     	;# 
   677  030E                     	;# 
   678  030F                     	;# 
   679  0310                     	;# 
   680  0310                     	;# 
   681  0311                     	;# 
   682  0312                     	;# 
   683  0313                     	;# 
   684  0314                     	;# 
   685  0314                     	;# 
   686  0315                     	;# 
   687  0316                     	;# 
   688  0318                     	;# 
   689  0318                     	;# 
   690  0319                     	;# 
   691  031A                     	;# 
   692  031C                     	;# 
   693  031C                     	;# 
   694  031D                     	;# 
   695  031E                     	;# 
   696  038C                     	;# 
   697  038C                     	;# 
   698  038D                     	;# 
   699  038E                     	;# 
   700  058C                     	;# 
   701  058C                     	;# 
   702  058D                     	;# 
   703  058E                     	;# 
   704  058F                     	;# 
   705  058F                     	;# 
   706  0590                     	;# 
   707  0591                     	;# 
   708  0592                     	;# 
   709  0593                     	;# 
   710  059C                     	;# 
   711  059C                     	;# 
   712  059D                     	;# 
   713  059D                     	;# 
   714  059E                     	;# 
   715  059F                     	;# 
   716  060C                     	;# 
   717  060D                     	;# 
   718  060E                     	;# 
   719  060F                     	;# 
   720  0610                     	;# 
   721  0611                     	;# 
   722  0612                     	;# 
   723  0613                     	;# 
   724  0614                     	;# 
   725  070C                     	;# 
   726  070D                     	;# 
   727  070E                     	;# 
   728  070F                     	;# 
   729  0710                     	;# 
   730  0711                     	;# 
   731  0712                     	;# 
   732  0713                     	;# 
   733  0716                     	;# 
   734  0717                     	;# 
   735  0718                     	;# 
   736  0719                     	;# 
   737  071A                     	;# 
   738  071B                     	;# 
   739  071C                     	;# 
   740  071D                     	;# 
   741  0796                     	;# 
   742  0797                     	;# 
   743  0798                     	;# 
   744  0799                     	;# 
   745  079A                     	;# 
   746  079B                     	;# 
   747  080C                     	;# 
   748  080D                     	;# 
   749  080E                     	;# 
   750  080F                     	;# 
   751  0810                     	;# 
   752  0811                     	;# 
   753  0812                     	;# 
   754  0813                     	;# 
   755  0814                     	;# 
   756  081A                     	;# 
   757  081A                     	;# 
   758  081B                     	;# 
   759  081C                     	;# 
   760  081C                     	;# 
   761  081D                     	;# 
   762  081E                     	;# 
   763  081F                     	;# 
   764  088C                     	;# 
   765  088D                     	;# 
   766  088E                     	;# 
   767  088F                     	;# 
   768  0890                     	;# 
   769  0891                     	;# 
   770  0892                     	;# 
   771  0893                     	;# 
   772  0895                     	;# 
   773  0896                     	;# 
   774  090C                     	;# 
   775  090E                     	;# 
   776  090F                     	;# 
   777  091F                     	;# 
   778  098F                     	;# 
   779  098F                     	;# 
   780  0990                     	;# 
   781  0991                     	;# 
   782  0992                     	;# 
   783  0993                     	;# 
   784  1E0F                     	;# 
   785  1E10                     	;# 
   786  1E11                     	;# 
   787  1E12                     	;# 
   788  1E13                     	;# 
   789  1E14                     	;# 
   790  1E15                     	;# 
   791  1E16                     	;# 
   792  1E17                     	;# 
   793  1E18                     	;# 
   794  1E19                     	;# 
   795  1E1A                     	;# 
   796  1E1B                     	;# 
   797  1E1C                     	;# 
   798  1E1D                     	;# 
   799  1E1E                     	;# 
   800  1E1F                     	;# 
   801  1E20                     	;# 
   802  1E21                     	;# 
   803  1E22                     	;# 
   804  1E23                     	;# 
   805  1E24                     	;# 
   806  1E25                     	;# 
   807  1E26                     	;# 
   808  1E27                     	;# 
   809  1E28                     	;# 
   810  1E29                     	;# 
   811  1E2A                     	;# 
   812  1E2B                     	;# 
   813  1E2C                     	;# 
   814  1E2D                     	;# 
   815  1E2E                     	;# 
   816  1E2F                     	;# 
   817  1E30                     	;# 
   818  1E31                     	;# 
   819  1E32                     	;# 
   820  1E33                     	;# 
   821  1E34                     	;# 
   822  1E35                     	;# 
   823  1E36                     	;# 
   824  1E37                     	;# 
   825  1E8F                     	;# 
   826  1E90                     	;# 
   827  1E91                     	;# 
   828  1E92                     	;# 
   829  1E93                     	;# 
   830  1E9C                     	;# 
   831  1EA1                     	;# 
   832  1EA2                     	;# 
   833  1EB1                     	;# 
   834  1EBB                     	;# 
   835  1EBC                     	;# 
   836  1EBD                     	;# 
   837  1EBE                     	;# 
   838  1EC3                     	;# 
   839  1EC5                     	;# 
   840  1EC6                     	;# 
   841  1EC7                     	;# 
   842  1ECB                     	;# 
   843  1ECC                     	;# 
   844  1F10                     	;# 
   845  1F11                     	;# 
   846  1F12                     	;# 
   847  1F13                     	;# 
   848  1F14                     	;# 
   849  1F15                     	;# 
   850  1F38                     	;# 
   851  1F39                     	;# 
   852  1F3A                     	;# 
   853  1F3B                     	;# 
   854  1F3C                     	;# 
   855  1F3D                     	;# 
   856  1F3E                     	;# 
   857  1F3F                     	;# 
   858  1FE4                     	;# 
   859  1FE5                     	;# 
   860  1FE6                     	;# 
   861  1FE7                     	;# 
   862  1FE8                     	;# 
   863  1FE8                     	;# 
   864  1FE9                     	;# 
   865  1FEA                     	;# 
   866  1FEA                     	;# 
   867  1FEB                     	;# 
   868  1FED                     	;# 
   869  1FEE                     	;# 
   870  1FEF                     	;# 
   871  0000                     	;# 
   872  0001                     	;# 
   873  0002                     	;# 
   874  0003                     	;# 
   875  0004                     	;# 
   876  0005                     	;# 
   877  0006                     	;# 
   878  0007                     	;# 
   879  0008                     	;# 
   880  0009                     	;# 
   881  000A                     	;# 
   882  000B                     	;# 
   883  000C                     	;# 
   884  0012                     	;# 
   885  0018                     	;# 
   886  009B                     	;# 
   887  009B                     	;# 
   888  009C                     	;# 
   889  009D                     	;# 
   890  009E                     	;# 
   891  009F                     	;# 
   892  0119                     	;# 
   893  0119                     	;# 
   894  0119                     	;# 
   895  011A                     	;# 
   896  011A                     	;# 
   897  011A                     	;# 
   898  011B                     	;# 
   899  011B                     	;# 
   900  011B                     	;# 
   901  011B                     	;# 
   902  011B                     	;# 
   903  011C                     	;# 
   904  011C                     	;# 
   905  011C                     	;# 
   906  011D                     	;# 
   907  011D                     	;# 
   908  011D                     	;# 
   909  011E                     	;# 
   910  011E                     	;# 
   911  011E                     	;# 
   912  011F                     	;# 
   913  011F                     	;# 
   914  011F                     	;# 
   915  011F                     	;# 
   916  011F                     	;# 
   917  018C                     	;# 
   918  018D                     	;# 
   919  018E                     	;# 
   920  018F                     	;# 
   921  0190                     	;# 
   922  0191                     	;# 
   923  0192                     	;# 
   924  020C                     	;# 
   925  020C                     	;# 
   926  020D                     	;# 
   927  020E                     	;# 
   928  020F                     	;# 
   929  020F                     	;# 
   930  0210                     	;# 
   931  0210                     	;# 
   932  0211                     	;# 
   933  0211                     	;# 
   934  028C                     	;# 
   935  028C                     	;# 
   936  028D                     	;# 
   937  028D                     	;# 
   938  028E                     	;# 
   939  028F                     	;# 
   940  0290                     	;# 
   941  0291                     	;# 
   942  030C                     	;# 
   943  030C                     	;# 
   944  030D                     	;# 
   945  030E                     	;# 
   946  030F                     	;# 
   947  0310                     	;# 
   948  0310                     	;# 
   949  0311                     	;# 
   950  0312                     	;# 
   951  0313                     	;# 
   952  0314                     	;# 
   953  0314                     	;# 
   954  0315                     	;# 
   955  0316                     	;# 
   956  0318                     	;# 
   957  0318                     	;# 
   958  0319                     	;# 
   959  031A                     	;# 
   960  031C                     	;# 
   961  031C                     	;# 
   962  031D                     	;# 
   963  031E                     	;# 
   964  038C                     	;# 
   965  038C                     	;# 
   966  038D                     	;# 
   967  038E                     	;# 
   968  058C                     	;# 
   969  058C                     	;# 
   970  058D                     	;# 
   971  058E                     	;# 
   972  058F                     	;# 
   973  058F                     	;# 
   974  0590                     	;# 
   975  0591                     	;# 
   976  0592                     	;# 
   977  0593                     	;# 
   978  059C                     	;# 
   979  059C                     	;# 
   980  059D                     	;# 
   981  059D                     	;# 
   982  059E                     	;# 
   983  059F                     	;# 
   984  060C                     	;# 
   985  060D                     	;# 
   986  060E                     	;# 
   987  060F                     	;# 
   988  0610                     	;# 
   989  0611                     	;# 
   990  0612                     	;# 
   991  0613                     	;# 
   992  0614                     	;# 
   993  070C                     	;# 
   994  070D                     	;# 
   995  070E                     	;# 
   996  070F                     	;# 
   997  0710                     	;# 
   998  0711                     	;# 
   999  0712                     	;# 
  1000  0713                     	;# 
  1001  0716                     	;# 
  1002  0717                     	;# 
  1003  0718                     	;# 
  1004  0719                     	;# 
  1005  071A                     	;# 
  1006  071B                     	;# 
  1007  071C                     	;# 
  1008  071D                     	;# 
  1009  0796                     	;# 
  1010  0797                     	;# 
  1011  0798                     	;# 
  1012  0799                     	;# 
  1013  079A                     	;# 
  1014  079B                     	;# 
  1015  080C                     	;# 
  1016  080D                     	;# 
  1017  080E                     	;# 
  1018  080F                     	;# 
  1019  0810                     	;# 
  1020  0811                     	;# 
  1021  0812                     	;# 
  1022  0813                     	;# 
  1023  0814                     	;# 
  1024  081A                     	;# 
  1025  081A                     	;# 
  1026  081B                     	;# 
  1027  081C                     	;# 
  1028  081C                     	;# 
  1029  081D                     	;# 
  1030  081E                     	;# 
  1031  081F                     	;# 
  1032  088C                     	;# 
  1033  088D                     	;# 
  1034  088E                     	;# 
  1035  088F                     	;# 
  1036  0890                     	;# 
  1037  0891                     	;# 
  1038  0892                     	;# 
  1039  0893                     	;# 
  1040  0895                     	;# 
  1041  0896                     	;# 
  1042  090C                     	;# 
  1043  090E                     	;# 
  1044  090F                     	;# 
  1045  091F                     	;# 
  1046  098F                     	;# 
  1047  098F                     	;# 
  1048  0990                     	;# 
  1049  0991                     	;# 
  1050  0992                     	;# 
  1051  0993                     	;# 
  1052  1E0F                     	;# 
  1053  1E10                     	;# 
  1054  1E11                     	;# 
  1055  1E12                     	;# 
  1056  1E13                     	;# 
  1057  1E14                     	;# 
  1058  1E15                     	;# 
  1059  1E16                     	;# 
  1060  1E17                     	;# 
  1061  1E18                     	;# 
  1062  1E19                     	;# 
  1063  1E1A                     	;# 
  1064  1E1B                     	;# 
  1065  1E1C                     	;# 
  1066  1E1D                     	;# 
  1067  1E1E                     	;# 
  1068  1E1F                     	;# 
  1069  1E20                     	;# 
  1070  1E21                     	;# 
  1071  1E22                     	;# 
  1072  1E23                     	;# 
  1073  1E24                     	;# 
  1074  1E25                     	;# 
  1075  1E26                     	;# 
  1076  1E27                     	;# 
  1077  1E28                     	;# 
  1078  1E29                     	;# 
  1079  1E2A                     	;# 
  1080  1E2B                     	;# 
  1081  1E2C                     	;# 
  1082  1E2D                     	;# 
  1083  1E2E                     	;# 
  1084  1E2F                     	;# 
  1085  1E30                     	;# 
  1086  1E31                     	;# 
  1087  1E32                     	;# 
  1088  1E33                     	;# 
  1089  1E34                     	;# 
  1090  1E35                     	;# 
  1091  1E36                     	;# 
  1092  1E37                     	;# 
  1093  1E8F                     	;# 
  1094  1E90                     	;# 
  1095  1E91                     	;# 
  1096  1E92                     	;# 
  1097  1E93                     	;# 
  1098  1E9C                     	;# 
  1099  1EA1                     	;# 
  1100  1EA2                     	;# 
  1101  1EB1                     	;# 
  1102  1EBB                     	;# 
  1103  1EBC                     	;# 
  1104  1EBD                     	;# 
  1105  1EBE                     	;# 
  1106  1EC3                     	;# 
  1107  1EC5                     	;# 
  1108  1EC6                     	;# 
  1109  1EC7                     	;# 
  1110  1ECB                     	;# 
  1111  1ECC                     	;# 
  1112  1F10                     	;# 
  1113  1F11                     	;# 
  1114  1F12                     	;# 
  1115  1F13                     	;# 
  1116  1F14                     	;# 
  1117  1F15                     	;# 
  1118  1F38                     	;# 
  1119  1F39                     	;# 
  1120  1F3A                     	;# 
  1121  1F3B                     	;# 
  1122  1F3C                     	;# 
  1123  1F3D                     	;# 
  1124  1F3E                     	;# 
  1125  1F3F                     	;# 
  1126  1FE4                     	;# 
  1127  1FE5                     	;# 
  1128  1FE6                     	;# 
  1129  1FE7                     	;# 
  1130  1FE8                     	;# 
  1131  1FE8                     	;# 
  1132  1FE9                     	;# 
  1133  1FEA                     	;# 
  1134  1FEA                     	;# 
  1135  1FEB                     	;# 
  1136  1FED                     	;# 
  1137  1FEE                     	;# 
  1138  1FEF                     	;# 
  1139  0000                     	;# 
  1140  0001                     	;# 
  1141  0002                     	;# 
  1142  0003                     	;# 
  1143  0004                     	;# 
  1144  0005                     	;# 
  1145  0006                     	;# 
  1146  0007                     	;# 
  1147  0008                     	;# 
  1148  0009                     	;# 
  1149  000A                     	;# 
  1150  000B                     	;# 
  1151  000C                     	;# 
  1152  0012                     	;# 
  1153  0018                     	;# 
  1154  009B                     	;# 
  1155  009B                     	;# 
  1156  009C                     	;# 
  1157  009D                     	;# 
  1158  009E                     	;# 
  1159  009F                     	;# 
  1160  0119                     	;# 
  1161  0119                     	;# 
  1162  0119                     	;# 
  1163  011A                     	;# 
  1164  011A                     	;# 
  1165  011A                     	;# 
  1166  011B                     	;# 
  1167  011B                     	;# 
  1168  011B                     	;# 
  1169  011B                     	;# 
  1170  011B                     	;# 
  1171  011C                     	;# 
  1172  011C                     	;# 
  1173  011C                     	;# 
  1174  011D                     	;# 
  1175  011D                     	;# 
  1176  011D                     	;# 
  1177  011E                     	;# 
  1178  011E                     	;# 
  1179  011E                     	;# 
  1180  011F                     	;# 
  1181  011F                     	;# 
  1182  011F                     	;# 
  1183  011F                     	;# 
  1184  011F                     	;# 
  1185  018C                     	;# 
  1186  018D                     	;# 
  1187  018E                     	;# 
  1188  018F                     	;# 
  1189  0190                     	;# 
  1190  0191                     	;# 
  1191  0192                     	;# 
  1192  020C                     	;# 
  1193  020C                     	;# 
  1194  020D                     	;# 
  1195  020E                     	;# 
  1196  020F                     	;# 
  1197  020F                     	;# 
  1198  0210                     	;# 
  1199  0210                     	;# 
  1200  0211                     	;# 
  1201  0211                     	;# 
  1202  028C                     	;# 
  1203  028C                     	;# 
  1204  028D                     	;# 
  1205  028D                     	;# 
  1206  028E                     	;# 
  1207  028F                     	;# 
  1208  0290                     	;# 
  1209  0291                     	;# 
  1210  030C                     	;# 
  1211  030C                     	;# 
  1212  030D                     	;# 
  1213  030E                     	;# 
  1214  030F                     	;# 
  1215  0310                     	;# 
  1216  0310                     	;# 
  1217  0311                     	;# 
  1218  0312                     	;# 
  1219  0313                     	;# 
  1220  0314                     	;# 
  1221  0314                     	;# 
  1222  0315                     	;# 
  1223  0316                     	;# 
  1224  0318                     	;# 
  1225  0318                     	;# 
  1226  0319                     	;# 
  1227  031A                     	;# 
  1228  031C                     	;# 
  1229  031C                     	;# 
  1230  031D                     	;# 
  1231  031E                     	;# 
  1232  038C                     	;# 
  1233  038C                     	;# 
  1234  038D                     	;# 
  1235  038E                     	;# 
  1236  058C                     	;# 
  1237  058C                     	;# 
  1238  058D                     	;# 
  1239  058E                     	;# 
  1240  058F                     	;# 
  1241  058F                     	;# 
  1242  0590                     	;# 
  1243  0591                     	;# 
  1244  0592                     	;# 
  1245  0593                     	;# 
  1246  059C                     	;# 
  1247  059C                     	;# 
  1248  059D                     	;# 
  1249  059D                     	;# 
  1250  059E                     	;# 
  1251  059F                     	;# 
  1252  060C                     	;# 
  1253  060D                     	;# 
  1254  060E                     	;# 
  1255  060F                     	;# 
  1256  0610                     	;# 
  1257  0611                     	;# 
  1258  0612                     	;# 
  1259  0613                     	;# 
  1260  0614                     	;# 
  1261  070C                     	;# 
  1262  070D                     	;# 
  1263  070E                     	;# 
  1264  070F                     	;# 
  1265  0710                     	;# 
  1266  0711                     	;# 
  1267  0712                     	;# 
  1268  0713                     	;# 
  1269  0716                     	;# 
  1270  0717                     	;# 
  1271  0718                     	;# 
  1272  0719                     	;# 
  1273  071A                     	;# 
  1274  071B                     	;# 
  1275  071C                     	;# 
  1276  071D                     	;# 
  1277  0796                     	;# 
  1278  0797                     	;# 
  1279  0798                     	;# 
  1280  0799                     	;# 
  1281  079A                     	;# 
  1282  079B                     	;# 
  1283  080C                     	;# 
  1284  080D                     	;# 
  1285  080E                     	;# 
  1286  080F                     	;# 
  1287  0810                     	;# 
  1288  0811                     	;# 
  1289  0812                     	;# 
  1290  0813                     	;# 
  1291  0814                     	;# 
  1292  081A                     	;# 
  1293  081A                     	;# 
  1294  081B                     	;# 
  1295  081C                     	;# 
  1296  081C                     	;# 
  1297  081D                     	;# 
  1298  081E                     	;# 
  1299  081F                     	;# 
  1300  088C                     	;# 
  1301  088D                     	;# 
  1302  088E                     	;# 
  1303  088F                     	;# 
  1304  0890                     	;# 
  1305  0891                     	;# 
  1306  0892                     	;# 
  1307  0893                     	;# 
  1308  0895                     	;# 
  1309  0896                     	;# 
  1310  090C                     	;# 
  1311  090E                     	;# 
  1312  090F                     	;# 
  1313  091F                     	;# 
  1314  098F                     	;# 
  1315  098F                     	;# 
  1316  0990                     	;# 
  1317  0991                     	;# 
  1318  0992                     	;# 
  1319  0993                     	;# 
  1320  1E0F                     	;# 
  1321  1E10                     	;# 
  1322  1E11                     	;# 
  1323  1E12                     	;# 
  1324  1E13                     	;# 
  1325  1E14                     	;# 
  1326  1E15                     	;# 
  1327  1E16                     	;# 
  1328  1E17                     	;# 
  1329  1E18                     	;# 
  1330  1E19                     	;# 
  1331  1E1A                     	;# 
  1332  1E1B                     	;# 
  1333  1E1C                     	;# 
  1334  1E1D                     	;# 
  1335  1E1E                     	;# 
  1336  1E1F                     	;# 
  1337  1E20                     	;# 
  1338  1E21                     	;# 
  1339  1E22                     	;# 
  1340  1E23                     	;# 
  1341  1E24                     	;# 
  1342  1E25                     	;# 
  1343  1E26                     	;# 
  1344  1E27                     	;# 
  1345  1E28                     	;# 
  1346  1E29                     	;# 
  1347  1E2A                     	;# 
  1348  1E2B                     	;# 
  1349  1E2C                     	;# 
  1350  1E2D                     	;# 
  1351  1E2E                     	;# 
  1352  1E2F                     	;# 
  1353  1E30                     	;# 
  1354  1E31                     	;# 
  1355  1E32                     	;# 
  1356  1E33                     	;# 
  1357  1E34                     	;# 
  1358  1E35                     	;# 
  1359  1E36                     	;# 
  1360  1E37                     	;# 
  1361  1E8F                     	;# 
  1362  1E90                     	;# 
  1363  1E91                     	;# 
  1364  1E92                     	;# 
  1365  1E93                     	;# 
  1366  1E9C                     	;# 
  1367  1EA1                     	;# 
  1368  1EA2                     	;# 
  1369  1EB1                     	;# 
  1370  1EBB                     	;# 
  1371  1EBC                     	;# 
  1372  1EBD                     	;# 
  1373  1EBE                     	;# 
  1374  1EC3                     	;# 
  1375  1EC5                     	;# 
  1376  1EC6                     	;# 
  1377  1EC7                     	;# 
  1378  1ECB                     	;# 
  1379  1ECC                     	;# 
  1380  1F10                     	;# 
  1381  1F11                     	;# 
  1382  1F12                     	;# 
  1383  1F13                     	;# 
  1384  1F14                     	;# 
  1385  1F15                     	;# 
  1386  1F38                     	;# 
  1387  1F39                     	;# 
  1388  1F3A                     	;# 
  1389  1F3B                     	;# 
  1390  1F3C                     	;# 
  1391  1F3D                     	;# 
  1392  1F3E                     	;# 
  1393  1F3F                     	;# 
  1394  1FE4                     	;# 
  1395  1FE5                     	;# 
  1396  1FE6                     	;# 
  1397  1FE7                     	;# 
  1398  1FE8                     	;# 
  1399  1FE8                     	;# 
  1400  1FE9                     	;# 
  1401  1FEA                     	;# 
  1402  1FEA                     	;# 
  1403  1FEB                     	;# 
  1404  1FED                     	;# 
  1405  1FEE                     	;# 
  1406  1FEF                     	;# 
  1407  0000                     	;# 
  1408  0001                     	;# 
  1409  0002                     	;# 
  1410  0003                     	;# 
  1411  0004                     	;# 
  1412  0005                     	;# 
  1413  0006                     	;# 
  1414  0007                     	;# 
  1415  0008                     	;# 
  1416  0009                     	;# 
  1417  000A                     	;# 
  1418  000B                     	;# 
  1419  000C                     	;# 
  1420  0012                     	;# 
  1421  0018                     	;# 
  1422  009B                     	;# 
  1423  009B                     	;# 
  1424  009C                     	;# 
  1425  009D                     	;# 
  1426  009E                     	;# 
  1427  009F                     	;# 
  1428  0119                     	;# 
  1429  0119                     	;# 
  1430  0119                     	;# 
  1431  011A                     	;# 
  1432  011A                     	;# 
  1433  011A                     	;# 
  1434  011B                     	;# 
  1435  011B                     	;# 
  1436  011B                     	;# 
  1437  011B                     	;# 
  1438  011B                     	;# 
  1439  011C                     	;# 
  1440  011C                     	;# 
  1441  011C                     	;# 
  1442  011D                     	;# 
  1443  011D                     	;# 
  1444  011D                     	;# 
  1445  011E                     	;# 
  1446  011E                     	;# 
  1447  011E                     	;# 
  1448  011F                     	;# 
  1449  011F                     	;# 
  1450  011F                     	;# 
  1451  011F                     	;# 
  1452  011F                     	;# 
  1453  018C                     	;# 
  1454  018D                     	;# 
  1455  018E                     	;# 
  1456  018F                     	;# 
  1457  0190                     	;# 
  1458  0191                     	;# 
  1459  0192                     	;# 
  1460  020C                     	;# 
  1461  020C                     	;# 
  1462  020D                     	;# 
  1463  020E                     	;# 
  1464  020F                     	;# 
  1465  020F                     	;# 
  1466  0210                     	;# 
  1467  0210                     	;# 
  1468  0211                     	;# 
  1469  0211                     	;# 
  1470  028C                     	;# 
  1471  028C                     	;# 
  1472  028D                     	;# 
  1473  028D                     	;# 
  1474  028E                     	;# 
  1475  028F                     	;# 
  1476  0290                     	;# 
  1477  0291                     	;# 
  1478  030C                     	;# 
  1479  030C                     	;# 
  1480  030D                     	;# 
  1481  030E                     	;# 
  1482  030F                     	;# 
  1483  0310                     	;# 
  1484  0310                     	;# 
  1485  0311                     	;# 
  1486  0312                     	;# 
  1487  0313                     	;# 
  1488  0314                     	;# 
  1489  0314                     	;# 
  1490  0315                     	;# 
  1491  0316                     	;# 
  1492  0318                     	;# 
  1493  0318                     	;# 
  1494  0319                     	;# 
  1495  031A                     	;# 
  1496  031C                     	;# 
  1497  031C                     	;# 
  1498  031D                     	;# 
  1499  031E                     	;# 
  1500  038C                     	;# 
  1501  038C                     	;# 
  1502  038D                     	;# 
  1503  038E                     	;# 
  1504  058C                     	;# 
  1505  058C                     	;# 
  1506  058D                     	;# 
  1507  058E                     	;# 
  1508  058F                     	;# 
  1509  058F                     	;# 
  1510  0590                     	;# 
  1511  0591                     	;# 
  1512  0592                     	;# 
  1513  0593                     	;# 
  1514  059C                     	;# 
  1515  059C                     	;# 
  1516  059D                     	;# 
  1517  059D                     	;# 
  1518  059E                     	;# 
  1519  059F                     	;# 
  1520  060C                     	;# 
  1521  060D                     	;# 
  1522  060E                     	;# 
  1523  060F                     	;# 
  1524  0610                     	;# 
  1525  0611                     	;# 
  1526  0612                     	;# 
  1527  0613                     	;# 
  1528  0614                     	;# 
  1529  070C                     	;# 
  1530  070D                     	;# 
  1531  070E                     	;# 
  1532  070F                     	;# 
  1533  0710                     	;# 
  1534  0711                     	;# 
  1535  0712                     	;# 
  1536  0713                     	;# 
  1537  0716                     	;# 
  1538  0717                     	;# 
  1539  0718                     	;# 
  1540  0719                     	;# 
  1541  071A                     	;# 
  1542  071B                     	;# 
  1543  071C                     	;# 
  1544  071D                     	;# 
  1545  0796                     	;# 
  1546  0797                     	;# 
  1547  0798                     	;# 
  1548  0799                     	;# 
  1549  079A                     	;# 
  1550  079B                     	;# 
  1551  080C                     	;# 
  1552  080D                     	;# 
  1553  080E                     	;# 
  1554  080F                     	;# 
  1555  0810                     	;# 
  1556  0811                     	;# 
  1557  0812                     	;# 
  1558  0813                     	;# 
  1559  0814                     	;# 
  1560  081A                     	;# 
  1561  081A                     	;# 
  1562  081B                     	;# 
  1563  081C                     	;# 
  1564  081C                     	;# 
  1565  081D                     	;# 
  1566  081E                     	;# 
  1567  081F                     	;# 
  1568  088C                     	;# 
  1569  088D                     	;# 
  1570  088E                     	;# 
  1571  088F                     	;# 
  1572  0890                     	;# 
  1573  0891                     	;# 
  1574  0892                     	;# 
  1575  0893                     	;# 
  1576  0895                     	;# 
  1577  0896                     	;# 
  1578  090C                     	;# 
  1579  090E                     	;# 
  1580  090F                     	;# 
  1581  091F                     	;# 
  1582  098F                     	;# 
  1583  098F                     	;# 
  1584  0990                     	;# 
  1585  0991                     	;# 
  1586  0992                     	;# 
  1587  0993                     	;# 
  1588  1E0F                     	;# 
  1589  1E10                     	;# 
  1590  1E11                     	;# 
  1591  1E12                     	;# 
  1592  1E13                     	;# 
  1593  1E14                     	;# 
  1594  1E15                     	;# 
  1595  1E16                     	;# 
  1596  1E17                     	;# 
  1597  1E18                     	;# 
  1598  1E19                     	;# 
  1599  1E1A                     	;# 
  1600  1E1B                     	;# 
  1601  1E1C                     	;# 
  1602  1E1D                     	;# 
  1603  1E1E                     	;# 
  1604  1E1F                     	;# 
  1605  1E20                     	;# 
  1606  1E21                     	;# 
  1607  1E22                     	;# 
  1608  1E23                     	;# 
  1609  1E24                     	;# 
  1610  1E25                     	;# 
  1611  1E26                     	;# 
  1612  1E27                     	;# 
  1613  1E28                     	;# 
  1614  1E29                     	;# 
  1615  1E2A                     	;# 
  1616  1E2B                     	;# 
  1617  1E2C                     	;# 
  1618  1E2D                     	;# 
  1619  1E2E                     	;# 
  1620  1E2F                     	;# 
  1621  1E30                     	;# 
  1622  1E31                     	;# 
  1623  1E32                     	;# 
  1624  1E33                     	;# 
  1625  1E34                     	;# 
  1626  1E35                     	;# 
  1627  1E36                     	;# 
  1628  1E37                     	;# 
  1629  1E8F                     	;# 
  1630  1E90                     	;# 
  1631  1E91                     	;# 
  1632  1E92                     	;# 
  1633  1E93                     	;# 
  1634  1E9C                     	;# 
  1635  1EA1                     	;# 
  1636  1EA2                     	;# 
  1637  1EB1                     	;# 
  1638  1EBB                     	;# 
  1639  1EBC                     	;# 
  1640  1EBD                     	;# 
  1641  1EBE                     	;# 
  1642  1EC3                     	;# 
  1643  1EC5                     	;# 
  1644  1EC6                     	;# 
  1645  1EC7                     	;# 
  1646  1ECB                     	;# 
  1647  1ECC                     	;# 
  1648  1F10                     	;# 
  1649  1F11                     	;# 
  1650  1F12                     	;# 
  1651  1F13                     	;# 
  1652  1F14                     	;# 
  1653  1F15                     	;# 
  1654  1F38                     	;# 
  1655  1F39                     	;# 
  1656  1F3A                     	;# 
  1657  1F3B                     	;# 
  1658  1F3C                     	;# 
  1659  1F3D                     	;# 
  1660  1F3E                     	;# 
  1661  1F3F                     	;# 
  1662  1FE4                     	;# 
  1663  1FE5                     	;# 
  1664  1FE6                     	;# 
  1665  1FE7                     	;# 
  1666  1FE8                     	;# 
  1667  1FE8                     	;# 
  1668  1FE9                     	;# 
  1669  1FEA                     	;# 
  1670  1FEA                     	;# 
  1671  1FEB                     	;# 
  1672  1FED                     	;# 
  1673  1FEE                     	;# 
  1674  1FEF                     	;# 
  1675  0000                     	;# 
  1676  0001                     	;# 
  1677  0002                     	;# 
  1678  0003                     	;# 
  1679  0004                     	;# 
  1680  0005                     	;# 
  1681  0006                     	;# 
  1682  0007                     	;# 
  1683  0008                     	;# 
  1684  0009                     	;# 
  1685  000A                     	;# 
  1686  000B                     	;# 
  1687  000C                     	;# 
  1688  0012                     	;# 
  1689  0018                     	;# 
  1690  009B                     	;# 
  1691  009B                     	;# 
  1692  009C                     	;# 
  1693  009D                     	;# 
  1694  009E                     	;# 
  1695  009F                     	;# 
  1696  0119                     	;# 
  1697  0119                     	;# 
  1698  0119                     	;# 
  1699  011A                     	;# 
  1700  011A                     	;# 
  1701  011A                     	;# 
  1702  011B                     	;# 
  1703  011B                     	;# 
  1704  011B                     	;# 
  1705  011B                     	;# 
  1706  011B                     	;# 
  1707  011C                     	;# 
  1708  011C                     	;# 
  1709  011C                     	;# 
  1710  011D                     	;# 
  1711  011D                     	;# 
  1712  011D                     	;# 
  1713  011E                     	;# 
  1714  011E                     	;# 
  1715  011E                     	;# 
  1716  011F                     	;# 
  1717  011F                     	;# 
  1718  011F                     	;# 
  1719  011F                     	;# 
  1720  011F                     	;# 
  1721  018C                     	;# 
  1722  018D                     	;# 
  1723  018E                     	;# 
  1724  018F                     	;# 
  1725  0190                     	;# 
  1726  0191                     	;# 
  1727  0192                     	;# 
  1728  020C                     	;# 
  1729  020C                     	;# 
  1730  020D                     	;# 
  1731  020E                     	;# 
  1732  020F                     	;# 
  1733  020F                     	;# 
  1734  0210                     	;# 
  1735  0210                     	;# 
  1736  0211                     	;# 
  1737  0211                     	;# 
  1738  028C                     	;# 
  1739  028C                     	;# 
  1740  028D                     	;# 
  1741  028D                     	;# 
  1742  028E                     	;# 
  1743  028F                     	;# 
  1744  0290                     	;# 
  1745  0291                     	;# 
  1746  030C                     	;# 
  1747  030C                     	;# 
  1748  030D                     	;# 
  1749  030E                     	;# 
  1750  030F                     	;# 
  1751  0310                     	;# 
  1752  0310                     	;# 
  1753  0311                     	;# 
  1754  0312                     	;# 
  1755  0313                     	;# 
  1756  0314                     	;# 
  1757  0314                     	;# 
  1758  0315                     	;# 
  1759  0316                     	;# 
  1760  0318                     	;# 
  1761  0318                     	;# 
  1762  0319                     	;# 
  1763  031A                     	;# 
  1764  031C                     	;# 
  1765  031C                     	;# 
  1766  031D                     	;# 
  1767  031E                     	;# 
  1768  038C                     	;# 
  1769  038C                     	;# 
  1770  038D                     	;# 
  1771  038E                     	;# 
  1772  058C                     	;# 
  1773  058C                     	;# 
  1774  058D                     	;# 
  1775  058E                     	;# 
  1776  058F                     	;# 
  1777  058F                     	;# 
  1778  0590                     	;# 
  1779  0591                     	;# 
  1780  0592                     	;# 
  1781  0593                     	;# 
  1782  059C                     	;# 
  1783  059C                     	;# 
  1784  059D                     	;# 
  1785  059D                     	;# 
  1786  059E                     	;# 
  1787  059F                     	;# 
  1788  060C                     	;# 
  1789  060D                     	;# 
  1790  060E                     	;# 
  1791  060F                     	;# 
  1792  0610                     	;# 
  1793  0611                     	;# 
  1794  0612                     	;# 
  1795  0613                     	;# 
  1796  0614                     	;# 
  1797  070C                     	;# 
  1798  070D                     	;# 
  1799  070E                     	;# 
  1800  070F                     	;# 
  1801  0710                     	;# 
  1802  0711                     	;# 
  1803  0712                     	;# 
  1804  0713                     	;# 
  1805  0716                     	;# 
  1806  0717                     	;# 
  1807  0718                     	;# 
  1808  0719                     	;# 
  1809  071A                     	;# 
  1810  071B                     	;# 
  1811  071C                     	;# 
  1812  071D                     	;# 
  1813  0796                     	;# 
  1814  0797                     	;# 
  1815  0798                     	;# 
  1816  0799                     	;# 
  1817  079A                     	;# 
  1818  079B                     	;# 
  1819  080C                     	;# 
  1820  080D                     	;# 
  1821  080E                     	;# 
  1822  080F                     	;# 
  1823  0810                     	;# 
  1824  0811                     	;# 
  1825  0812                     	;# 
  1826  0813                     	;# 
  1827  0814                     	;# 
  1828  081A                     	;# 
  1829  081A                     	;# 
  1830  081B                     	;# 
  1831  081C                     	;# 
  1832  081C                     	;# 
  1833  081D                     	;# 
  1834  081E                     	;# 
  1835  081F                     	;# 
  1836  088C                     	;# 
  1837  088D                     	;# 
  1838  088E                     	;# 
  1839  088F                     	;# 
  1840  0890                     	;# 
  1841  0891                     	;# 
  1842  0892                     	;# 
  1843  0893                     	;# 
  1844  0895                     	;# 
  1845  0896                     	;# 
  1846  090C                     	;# 
  1847  090E                     	;# 
  1848  090F                     	;# 
  1849  091F                     	;# 
  1850  098F                     	;# 
  1851  098F                     	;# 
  1852  0990                     	;# 
  1853  0991                     	;# 
  1854  0992                     	;# 
  1855  0993                     	;# 
  1856  1E0F                     	;# 
  1857  1E10                     	;# 
  1858  1E11                     	;# 
  1859  1E12                     	;# 
  1860  1E13                     	;# 
  1861  1E14                     	;# 
  1862  1E15                     	;# 
  1863  1E16                     	;# 
  1864  1E17                     	;# 
  1865  1E18                     	;# 
  1866  1E19                     	;# 
  1867  1E1A                     	;# 
  1868  1E1B                     	;# 
  1869  1E1C                     	;# 
  1870  1E1D                     	;# 
  1871  1E1E                     	;# 
  1872  1E1F                     	;# 
  1873  1E20                     	;# 
  1874  1E21                     	;# 
  1875  1E22                     	;# 
  1876  1E23                     	;# 
  1877  1E24                     	;# 
  1878  1E25                     	;# 
  1879  1E26                     	;# 
  1880  1E27                     	;# 
  1881  1E28                     	;# 
  1882  1E29                     	;# 
  1883  1E2A                     	;# 
  1884  1E2B                     	;# 
  1885  1E2C                     	;# 
  1886  1E2D                     	;# 
  1887  1E2E                     	;# 
  1888  1E2F                     	;# 
  1889  1E30                     	;# 
  1890  1E31                     	;# 
  1891  1E32                     	;# 
  1892  1E33                     	;# 
  1893  1E34                     	;# 
  1894  1E35                     	;# 
  1895  1E36                     	;# 
  1896  1E37                     	;# 
  1897  1E8F                     	;# 
  1898  1E90                     	;# 
  1899  1E91                     	;# 
  1900  1E92                     	;# 
  1901  1E93                     	;# 
  1902  1E9C                     	;# 
  1903  1EA1                     	;# 
  1904  1EA2                     	;# 
  1905  1EB1                     	;# 
  1906  1EBB                     	;# 
  1907  1EBC                     	;# 
  1908  1EBD                     	;# 
  1909  1EBE                     	;# 
  1910  1EC3                     	;# 
  1911  1EC5                     	;# 
  1912  1EC6                     	;# 
  1913  1EC7                     	;# 
  1914  1ECB                     	;# 
  1915  1ECC                     	;# 
  1916  1F10                     	;# 
  1917  1F11                     	;# 
  1918  1F12                     	;# 
  1919  1F13                     	;# 
  1920  1F14                     	;# 
  1921  1F15                     	;# 
  1922  1F38                     	;# 
  1923  1F39                     	;# 
  1924  1F3A                     	;# 
  1925  1F3B                     	;# 
  1926  1F3C                     	;# 
  1927  1F3D                     	;# 
  1928  1F3E                     	;# 
  1929  1F3F                     	;# 
  1930  1FE4                     	;# 
  1931  1FE5                     	;# 
  1932  1FE6                     	;# 
  1933  1FE7                     	;# 
  1934  1FE8                     	;# 
  1935  1FE8                     	;# 
  1936  1FE9                     	;# 
  1937  1FEA                     	;# 
  1938  1FEA                     	;# 
  1939  1FEB                     	;# 
  1940  1FED                     	;# 
  1941  1FEE                     	;# 
  1942  1FEF                     	;# 
  1943  0000                     	;# 
  1944  0001                     	;# 
  1945  0002                     	;# 
  1946  0003                     	;# 
  1947  0004                     	;# 
  1948  0005                     	;# 
  1949  0006                     	;# 
  1950  0007                     	;# 
  1951  0008                     	;# 
  1952  0009                     	;# 
  1953  000A                     	;# 
  1954  000B                     	;# 
  1955  000C                     	;# 
  1956  0012                     	;# 
  1957  0018                     	;# 
  1958  009B                     	;# 
  1959  009B                     	;# 
  1960  009C                     	;# 
  1961  009D                     	;# 
  1962  009E                     	;# 
  1963  009F                     	;# 
  1964  0119                     	;# 
  1965  0119                     	;# 
  1966  0119                     	;# 
  1967  011A                     	;# 
  1968  011A                     	;# 
  1969  011A                     	;# 
  1970  011B                     	;# 
  1971  011B                     	;# 
  1972  011B                     	;# 
  1973  011B                     	;# 
  1974  011B                     	;# 
  1975  011C                     	;# 
  1976  011C                     	;# 
  1977  011C                     	;# 
  1978  011D                     	;# 
  1979  011D                     	;# 
  1980  011D                     	;# 
  1981  011E                     	;# 
  1982  011E                     	;# 
  1983  011E                     	;# 
  1984  011F                     	;# 
  1985  011F                     	;# 
  1986  011F                     	;# 
  1987  011F                     	;# 
  1988  011F                     	;# 
  1989  018C                     	;# 
  1990  018D                     	;# 
  1991  018E                     	;# 
  1992  018F                     	;# 
  1993  0190                     	;# 
  1994  0191                     	;# 
  1995  0192                     	;# 
  1996  020C                     	;# 
  1997  020C                     	;# 
  1998  020D                     	;# 
  1999  020E                     	;# 
  2000  020F                     	;# 
  2001  020F                     	;# 
  2002  0210                     	;# 
  2003  0210                     	;# 
  2004  0211                     	;# 
  2005  0211                     	;# 
  2006  028C                     	;# 
  2007  028C                     	;# 
  2008  028D                     	;# 
  2009  028D                     	;# 
  2010  028E                     	;# 
  2011  028F                     	;# 
  2012  0290                     	;# 
  2013  0291                     	;# 
  2014  030C                     	;# 
  2015  030C                     	;# 
  2016  030D                     	;# 
  2017  030E                     	;# 
  2018  030F                     	;# 
  2019  0310                     	;# 
  2020  0310                     	;# 
  2021  0311                     	;# 
  2022  0312                     	;# 
  2023  0313                     	;# 
  2024  0314                     	;# 
  2025  0314                     	;# 
  2026  0315                     	;# 
  2027  0316                     	;# 
  2028  0318                     	;# 
  2029  0318                     	;# 
  2030  0319                     	;# 
  2031  031A                     	;# 
  2032  031C                     	;# 
  2033  031C                     	;# 
  2034  031D                     	;# 
  2035  031E                     	;# 
  2036  038C                     	;# 
  2037  038C                     	;# 
  2038  038D                     	;# 
  2039  038E                     	;# 
  2040  058C                     	;# 
  2041  058C                     	;# 
  2042  058D                     	;# 
  2043  058E                     	;# 
  2044  058F                     	;# 
  2045  058F                     	;# 
  2046  0590                     	;# 
  2047  0591                     	;# 
  2048  0592                     	;# 
  2049  0593                     	;# 
  2050  059C                     	;# 
  2051  059C                     	;# 
  2052  059D                     	;# 
  2053  059D                     	;# 
  2054  059E                     	;# 
  2055  059F                     	;# 
  2056  060C                     	;# 
  2057  060D                     	;# 
  2058  060E                     	;# 
  2059  060F                     	;# 
  2060  0610                     	;# 
  2061  0611                     	;# 
  2062  0612                     	;# 
  2063  0613                     	;# 
  2064  0614                     	;# 
  2065  070C                     	;# 
  2066  070D                     	;# 
  2067  070E                     	;# 
  2068  070F                     	;# 
  2069  0710                     	;# 
  2070  0711                     	;# 
  2071  0712                     	;# 
  2072  0713                     	;# 
  2073  0716                     	;# 
  2074  0717                     	;# 
  2075  0718                     	;# 
  2076  0719                     	;# 
  2077  071A                     	;# 
  2078  071B                     	;# 
  2079  071C                     	;# 
  2080  071D                     	;# 
  2081  0796                     	;# 
  2082  0797                     	;# 
  2083  0798                     	;# 
  2084  0799                     	;# 
  2085  079A                     	;# 
  2086  079B                     	;# 
  2087  080C                     	;# 
  2088  080D                     	;# 
  2089  080E                     	;# 
  2090  080F                     	;# 
  2091  0810                     	;# 
  2092  0811                     	;# 
  2093  0812                     	;# 
  2094  0813                     	;# 
  2095  0814                     	;# 
  2096  081A                     	;# 
  2097  081A                     	;# 
  2098  081B                     	;# 
  2099  081C                     	;# 
  2100  081C                     	;# 
  2101  081D                     	;# 
  2102  081E                     	;# 
  2103  081F                     	;# 
  2104  088C                     	;# 
  2105  088D                     	;# 
  2106  088E                     	;# 
  2107  088F                     	;# 
  2108  0890                     	;# 
  2109  0891                     	;# 
  2110  0892                     	;# 
  2111  0893                     	;# 
  2112  0895                     	;# 
  2113  0896                     	;# 
  2114  090C                     	;# 
  2115  090E                     	;# 
  2116  090F                     	;# 
  2117  091F                     	;# 
  2118  098F                     	;# 
  2119  098F                     	;# 
  2120  0990                     	;# 
  2121  0991                     	;# 
  2122  0992                     	;# 
  2123  0993                     	;# 
  2124  1E0F                     	;# 
  2125  1E10                     	;# 
  2126  1E11                     	;# 
  2127  1E12                     	;# 
  2128  1E13                     	;# 
  2129  1E14                     	;# 
  2130  1E15                     	;# 
  2131  1E16                     	;# 
  2132  1E17                     	;# 
  2133  1E18                     	;# 
  2134  1E19                     	;# 
  2135  1E1A                     	;# 
  2136  1E1B                     	;# 
  2137  1E1C                     	;# 
  2138  1E1D                     	;# 
  2139  1E1E                     	;# 
  2140  1E1F                     	;# 
  2141  1E20                     	;# 
  2142  1E21                     	;# 
  2143  1E22                     	;# 
  2144  1E23                     	;# 
  2145  1E24                     	;# 
  2146  1E25                     	;# 
  2147  1E26                     	;# 
  2148  1E27                     	;# 
  2149  1E28                     	;# 
  2150  1E29                     	;# 
  2151  1E2A                     	;# 
  2152  1E2B                     	;# 
  2153  1E2C                     	;# 
  2154  1E2D                     	;# 
  2155  1E2E                     	;# 
  2156  1E2F                     	;# 
  2157  1E30                     	;# 
  2158  1E31                     	;# 
  2159  1E32                     	;# 
  2160  1E33                     	;# 
  2161  1E34                     	;# 
  2162  1E35                     	;# 
  2163  1E36                     	;# 
  2164  1E37                     	;# 
  2165  1E8F                     	;# 
  2166  1E90                     	;# 
  2167  1E91                     	;# 
  2168  1E92                     	;# 
  2169  1E93                     	;# 
  2170  1E9C                     	;# 
  2171  1EA1                     	;# 
  2172  1EA2                     	;# 
  2173  1EB1                     	;# 
  2174  1EBB                     	;# 
  2175  1EBC                     	;# 
  2176  1EBD                     	;# 
  2177  1EBE                     	;# 
  2178  1EC3                     	;# 
  2179  1EC5                     	;# 
  2180  1EC6                     	;# 
  2181  1EC7                     	;# 
  2182  1ECB                     	;# 
  2183  1ECC                     	;# 
  2184  1F10                     	;# 
  2185  1F11                     	;# 
  2186  1F12                     	;# 
  2187  1F13                     	;# 
  2188  1F14                     	;# 
  2189  1F15                     	;# 
  2190  1F38                     	;# 
  2191  1F39                     	;# 
  2192  1F3A                     	;# 
  2193  1F3B                     	;# 
  2194  1F3C                     	;# 
  2195  1F3D                     	;# 
  2196  1F3E                     	;# 
  2197  1F3F                     	;# 
  2198  1FE4                     	;# 
  2199  1FE5                     	;# 
  2200  1FE6                     	;# 
  2201  1FE7                     	;# 
  2202  1FE8                     	;# 
  2203  1FE8                     	;# 
  2204  1FE9                     	;# 
  2205  1FEA                     	;# 
  2206  1FEA                     	;# 
  2207  1FEB                     	;# 
  2208  1FED                     	;# 
  2209  1FEE                     	;# 
  2210  1FEF                     	;# 
  2211  0000                     	;# 
  2212  0001                     	;# 
  2213  0002                     	;# 
  2214  0003                     	;# 
  2215  0004                     	;# 
  2216  0005                     	;# 
  2217  0006                     	;# 
  2218  0007                     	;# 
  2219  0008                     	;# 
  2220  0009                     	;# 
  2221  000A                     	;# 
  2222  000B                     	;# 
  2223  000C                     	;# 
  2224  0012                     	;# 
  2225  0018                     	;# 
  2226  009B                     	;# 
  2227  009B                     	;# 
  2228  009C                     	;# 
  2229  009D                     	;# 
  2230  009E                     	;# 
  2231  009F                     	;# 
  2232  0119                     	;# 
  2233  0119                     	;# 
  2234  0119                     	;# 
  2235  011A                     	;# 
  2236  011A                     	;# 
  2237  011A                     	;# 
  2238  011B                     	;# 
  2239  011B                     	;# 
  2240  011B                     	;# 
  2241  011B                     	;# 
  2242  011B                     	;# 
  2243  011C                     	;# 
  2244  011C                     	;# 
  2245  011C                     	;# 
  2246  011D                     	;# 
  2247  011D                     	;# 
  2248  011D                     	;# 
  2249  011E                     	;# 
  2250  011E                     	;# 
  2251  011E                     	;# 
  2252  011F                     	;# 
  2253  011F                     	;# 
  2254  011F                     	;# 
  2255  011F                     	;# 
  2256  011F                     	;# 
  2257  018C                     	;# 
  2258  018D                     	;# 
  2259  018E                     	;# 
  2260  018F                     	;# 
  2261  0190                     	;# 
  2262  0191                     	;# 
  2263  0192                     	;# 
  2264  020C                     	;# 
  2265  020C                     	;# 
  2266  020D                     	;# 
  2267  020E                     	;# 
  2268  020F                     	;# 
  2269  020F                     	;# 
  2270  0210                     	;# 
  2271  0210                     	;# 
  2272  0211                     	;# 
  2273  0211                     	;# 
  2274  028C                     	;# 
  2275  028C                     	;# 
  2276  028D                     	;# 
  2277  028D                     	;# 
  2278  028E                     	;# 
  2279  028F                     	;# 
  2280  0290                     	;# 
  2281  0291                     	;# 
  2282  030C                     	;# 
  2283  030C                     	;# 
  2284  030D                     	;# 
  2285  030E                     	;# 
  2286  030F                     	;# 
  2287  0310                     	;# 
  2288  0310                     	;# 
  2289  0311                     	;# 
  2290  0312                     	;# 
  2291  0313                     	;# 
  2292  0314                     	;# 
  2293  0314                     	;# 
  2294  0315                     	;# 
  2295  0316                     	;# 
  2296  0318                     	;# 
  2297  0318                     	;# 
  2298  0319                     	;# 
  2299  031A                     	;# 
  2300  031C                     	;# 
  2301  031C                     	;# 
  2302  031D                     	;# 
  2303  031E                     	;# 
  2304  038C                     	;# 
  2305  038C                     	;# 
  2306  038D                     	;# 
  2307  038E                     	;# 
  2308  058C                     	;# 
  2309  058C                     	;# 
  2310  058D                     	;# 
  2311  058E                     	;# 
  2312  058F                     	;# 
  2313  058F                     	;# 
  2314  0590                     	;# 
  2315  0591                     	;# 
  2316  0592                     	;# 
  2317  0593                     	;# 
  2318  059C                     	;# 
  2319  059C                     	;# 
  2320  059D                     	;# 
  2321  059D                     	;# 
  2322  059E                     	;# 
  2323  059F                     	;# 
  2324  060C                     	;# 
  2325  060D                     	;# 
  2326  060E                     	;# 
  2327  060F                     	;# 
  2328  0610                     	;# 
  2329  0611                     	;# 
  2330  0612                     	;# 
  2331  0613                     	;# 
  2332  0614                     	;# 
  2333  070C                     	;# 
  2334  070D                     	;# 
  2335  070E                     	;# 
  2336  070F                     	;# 
  2337  0710                     	;# 
  2338  0711                     	;# 
  2339  0712                     	;# 
  2340  0713                     	;# 
  2341  0716                     	;# 
  2342  0717                     	;# 
  2343  0718                     	;# 
  2344  0719                     	;# 
  2345  071A                     	;# 
  2346  071B                     	;# 
  2347  071C                     	;# 
  2348  071D                     	;# 
  2349  0796                     	;# 
  2350  0797                     	;# 
  2351  0798                     	;# 
  2352  0799                     	;# 
  2353  079A                     	;# 
  2354  079B                     	;# 
  2355  080C                     	;# 
  2356  080D                     	;# 
  2357  080E                     	;# 
  2358  080F                     	;# 
  2359  0810                     	;# 
  2360  0811                     	;# 
  2361  0812                     	;# 
  2362  0813                     	;# 
  2363  0814                     	;# 
  2364  081A                     	;# 
  2365  081A                     	;# 
  2366  081B                     	;# 
  2367  081C                     	;# 
  2368  081C                     	;# 
  2369  081D                     	;# 
  2370  081E                     	;# 
  2371  081F                     	;# 
  2372  088C                     	;# 
  2373  088D                     	;# 
  2374  088E                     	;# 
  2375  088F                     	;# 
  2376  0890                     	;# 
  2377  0891                     	;# 
  2378  0892                     	;# 
  2379  0893                     	;# 
  2380  0895                     	;# 
  2381  0896                     	;# 
  2382  090C                     	;# 
  2383  090E                     	;# 
  2384  090F                     	;# 
  2385  091F                     	;# 
  2386  098F                     	;# 
  2387  098F                     	;# 
  2388  0990                     	;# 
  2389  0991                     	;# 
  2390  0992                     	;# 
  2391  0993                     	;# 
  2392  1E0F                     	;# 
  2393  1E10                     	;# 
  2394  1E11                     	;# 
  2395  1E12                     	;# 
  2396  1E13                     	;# 
  2397  1E14                     	;# 
  2398  1E15                     	;# 
  2399  1E16                     	;# 
  2400  1E17                     	;# 
  2401  1E18                     	;# 
  2402  1E19                     	;# 
  2403  1E1A                     	;# 
  2404  1E1B                     	;# 
  2405  1E1C                     	;# 
  2406  1E1D                     	;# 
  2407  1E1E                     	;# 
  2408  1E1F                     	;# 
  2409  1E20                     	;# 
  2410  1E21                     	;# 
  2411  1E22                     	;# 
  2412  1E23                     	;# 
  2413  1E24                     	;# 
  2414  1E25                     	;# 
  2415  1E26                     	;# 
  2416  1E27                     	;# 
  2417  1E28                     	;# 
  2418  1E29                     	;# 
  2419  1E2A                     	;# 
  2420  1E2B                     	;# 
  2421  1E2C                     	;# 
  2422  1E2D                     	;# 
  2423  1E2E                     	;# 
  2424  1E2F                     	;# 
  2425  1E30                     	;# 
  2426  1E31                     	;# 
  2427  1E32                     	;# 
  2428  1E33                     	;# 
  2429  1E34                     	;# 
  2430  1E35                     	;# 
  2431  1E36                     	;# 
  2432  1E37                     	;# 
  2433  1E8F                     	;# 
  2434  1E90                     	;# 
  2435  1E91                     	;# 
  2436  1E92                     	;# 
  2437  1E93                     	;# 
  2438  1E9C                     	;# 
  2439  1EA1                     	;# 
  2440  1EA2                     	;# 
  2441  1EB1                     	;# 
  2442  1EBB                     	;# 
  2443  1EBC                     	;# 
  2444  1EBD                     	;# 
  2445  1EBE                     	;# 
  2446  1EC3                     	;# 
  2447  1EC5                     	;# 
  2448  1EC6                     	;# 
  2449  1EC7                     	;# 
  2450  1ECB                     	;# 
  2451  1ECC                     	;# 
  2452  1F10                     	;# 
  2453  1F11                     	;# 
  2454  1F12                     	;# 
  2455  1F13                     	;# 
  2456  1F14                     	;# 
  2457  1F15                     	;# 
  2458  1F38                     	;# 
  2459  1F39                     	;# 
  2460  1F3A                     	;# 
  2461  1F3B                     	;# 
  2462  1F3C                     	;# 
  2463  1F3D                     	;# 
  2464  1F3E                     	;# 
  2465  1F3F                     	;# 
  2466  1FE4                     	;# 
  2467  1FE5                     	;# 
  2468  1FE6                     	;# 
  2469  1FE7                     	;# 
  2470  1FE8                     	;# 
  2471  1FE8                     	;# 
  2472  1FE9                     	;# 
  2473  1FEA                     	;# 
  2474  1FEA                     	;# 
  2475  1FEB                     	;# 
  2476  1FED                     	;# 
  2477  1FEE                     	;# 
  2478  1FEF                     	;# 
  2479                           
  2480 ;; Function _TMR0_DefaultInterruptHandler is unused but had its address taken
  2481  0000                     
  2482                           	psect	nvBANK0
  2483  0040                     __pnvBANK0:
  2484  0040                     _TMR0_InterruptHandler:
  2485  0040                     	ds	2
  2486  0012                     _TRISA	set	18
  2487  0018                     _LATA	set	24
  2488  000B                     _INTCONbits	set	11
  2489  0065                     _RA5	set	101
  2490  0063                     _RA3	set	99
  2491  009D                     _ADCON0bits	set	157
  2492  009D                     _ADCON0	set	157
  2493  009C                     _ADRESH	set	156
  2494  009B                     _ADRESL	set	155
  2495  009E                     _ADCON1	set	158
  2496  0592                     _NCO1CONbits	set	1426
  2497  058F                     _NCO1INCL	set	1423
  2498  0590                     _NCO1INCH	set	1424
  2499  0591                     _NCO1INCU	set	1425
  2500  058C                     _NCO1ACCL	set	1420
  2501  058D                     _NCO1ACCH	set	1421
  2502  058E                     _NCO1ACCU	set	1422
  2503  0593                     _NCO1CLK	set	1427
  2504  0592                     _NCO1CON	set	1426
  2505  059E                     _T0CON0bits	set	1438
  2506  059E                     _T0CON0	set	1438
  2507  059C                     _TMR0L	set	1436
  2508  059D                     _TMR0H	set	1437
  2509  059F                     _T0CON1	set	1439
  2510  070C                     _PIR0bits	set	1804
  2511  0716                     _PIE0bits	set	1814
  2512  0718                     _PIE2bits	set	1816
  2513  070E                     _PIR2bits	set	1806
  2514  079B                     _PMD5	set	1947
  2515  079A                     _PMD4	set	1946
  2516  0799                     _PMD3	set	1945
  2517  0798                     _PMD2	set	1944
  2518  0797                     _PMD1	set	1943
  2519  0796                     _PMD0	set	1942
  2520  081F                     _NVMCON2	set	2079
  2521  081C                     _NVMDATL	set	2076
  2522  081D                     _NVMDATH	set	2077
  2523  081E                     _NVMCON1bits	set	2078
  2524  081B                     _NVMADRH	set	2075
  2525  081A                     _NVMADRL	set	2074
  2526  0892                     _OSCTUNE	set	2194
  2527  0890                     _OSCSTAT	set	2192
  2528  0893                     _OSCFRQ	set	2195
  2529  0891                     _OSCEN	set	2193
  2530  088F                     _OSCCON3	set	2191
  2531  088D                     _OSCCON1	set	2189
  2532  091F                     _ZCDCON	set	2335
  2533  1F14                     _RA4PPS	set	7956
  2534  1F3C                     _INLVLA	set	7996
  2535  1F3B                     _SLRCONA	set	7995
  2536  1F3A                     _ODCONA	set	7994
  2537  1F39                     _WPUA	set	7993
  2538  1F38                     _ANSELA	set	7992
  2539                           
  2540                           	psect	cinit
  2541  0026                     start_initialization:	
  2542                           ; #config settings
  2543                           
  2544  0026                     __initialization:
  2545                           
  2546                           ; Clear objects allocated to COMMON
  2547  0026  01FA               	clrf	__pbssCOMMON& (0+127)
  2548  0027  01FB               	clrf	(__pbssCOMMON+1)& (0+127)
  2549                           
  2550                           ; Clear objects allocated to BANK0
  2551  0028  3020               	movlw	low __pbssBANK0
  2552  0029  0084               	movwf	4
  2553  002A  3000               	movlw	high __pbssBANK0
  2554  002B  0085               	movwf	5
  2555  002C  3015               	movlw	21
  2556  002D  3182  2265  3180   	fcall	clear_ram0
  2557                           
  2558                           ; Clear objects allocated to BANK1
  2559  0030  30A0               	movlw	low __pbssBANK1
  2560  0031  0084               	movwf	4
  2561  0032  3000               	movlw	high __pbssBANK1
  2562  0033  0085               	movwf	5
  2563  0034  3040               	movlw	64
  2564  0035  3182  2265  3180   	fcall	clear_ram0
  2565                           
  2566                           ; Clear objects allocated to BANK2
  2567  0038  3020               	movlw	low __pbssBANK2
  2568  0039  0084               	movwf	4
  2569  003A  3001               	movlw	high __pbssBANK2
  2570  003B  0085               	movwf	5
  2571  003C  3040               	movlw	64
  2572  003D  3182  2265  3180   	fcall	clear_ram0
  2573  0040                     end_of_initialization:	
  2574                           ;End of C runtime variable initialization code
  2575                           
  2576  0040                     __end_of__initialization:
  2577  0040  107E               	bcf	int$flags,0	;clear compiler interrupt flag (level 1)
  2578  0041  0140               	movlb	0
  2579  0042  2843               	ljmp	_main	;jump to C main() function
  2580                           
  2581                           	psect	bssCOMMON
  2582  007A                     __pbssCOMMON:
  2583  007A                     low_pass_filter_1@i:
  2584  007A                     	ds	2
  2585                           
  2586                           	psect	bssBANK0
  2587  0020                     __pbssBANK0:
  2588  0020                     low_pass_filter_2@total1:
  2589  0020                     	ds	2
  2590  0022                     low_pass_filter_2@i1:
  2591  0022                     	ds	2
  2592  0024                     low_pass_filter_1@total:
  2593  0024                     	ds	2
  2594  0026                     _zadat_slope:
  2595  0026                     	ds	2
  2596  0028                     _zadat_slope_adc:
  2597  0028                     	ds	2
  2598  002A                     _zadat_ugao:
  2599  002A                     	ds	2
  2600  002C                     _zadat_ugao_adc:
  2601  002C                     	ds	2
  2602  002E                     _brojac2:
  2603  002E                     	ds	2
  2604  0030                     _brojac1:
  2605  0030                     	ds	2
  2606  0032                     _ADC_InterruptHandler:
  2607  0032                     	ds	2
  2608  0034                     _scr_out_enable:
  2609  0034                     	ds	1
  2610                           
  2611                           	psect	bssBANK1
  2612  00A0                     __pbssBANK1:
  2613  00A0                     low_pass_filter_1@samples:
  2614  00A0                     	ds	64
  2615                           
  2616                           	psect	bssBANK2
  2617  0120                     __pbssBANK2:
  2618  0120                     low_pass_filter_2@samples1:
  2619  0120                     	ds	64
  2620                           
  2621                           	psect	clrtext
  2622  0265                     clear_ram0:	
  2623                           ;	Called with FSR0 containing the base address, and
  2624                           ;	WREG with the size to clear
  2625                           
  2626  0265  0064               	clrwdt	;clear the watchdog before getting into this loop
  2627  0266                     clrloop0:
  2628  0266  0180               	clrf	0	;clear RAM location pointed to by FSR
  2629  0267  3101               	addfsr 0,1
  2630  0268  0B89               	decfsz	9,f	;Have we reached the end of clearing yet?
  2631  0269  2A66               	goto	clrloop0	;have we reached the end yet?
  2632  026A  3400               	retlw	0	;all done for this memory range, return
  2633                           
  2634                           	psect	cstackCOMMON
  2635  0070                     __pcstackCOMMON:
  2636  0070                     ?_TMR0_ISR:
  2637  0070                     ??_TMR0_ISR:	
  2638                           ; 1 bytes @ 0x0
  2639                           
  2640  0070                     ?_ZCD_ISR:	
  2641                           ; 1 bytes @ 0x0
  2642                           
  2643  0070                     ??_ZCD_ISR:	
  2644                           ; 1 bytes @ 0x0
  2645                           
  2646  0070                     ?_PMD_Initialize:	
  2647                           ; 1 bytes @ 0x0
  2648                           
  2649  0070                     ?_PIN_MANAGER_Initialize:	
  2650                           ; 1 bytes @ 0x0
  2651                           
  2652  0070                     ?_OSCILLATOR_Initialize:	
  2653                           ; 1 bytes @ 0x0
  2654                           
  2655  0070                     ?_NCO1_Initialize:	
  2656                           ; 1 bytes @ 0x0
  2657                           
  2658  0070                     ?_TMR0_Initialize:	
  2659                           ; 1 bytes @ 0x0
  2660                           
  2661  0070                     ?_ADC_Initialize:	
  2662                           ; 1 bytes @ 0x0
  2663                           
  2664  0070                     ?_ZCD_Initialize:	
  2665                           ; 1 bytes @ 0x0
  2666                           
  2667  0070                     ?_INTERRUPT_InterruptManager:	
  2668                           ; 1 bytes @ 0x0
  2669                           
  2670  0070                     ?_SYSTEM_Initialize:	
  2671                           ; 1 bytes @ 0x0
  2672                           
  2673  0070                     ?_TMR0_StartTimer:	
  2674                           ; 1 bytes @ 0x0
  2675                           
  2676  0070                     ?_main:	
  2677                           ; 1 bytes @ 0x0
  2678                           
  2679                           
  2680                           ; 1 bytes @ 0x0
  2681  0070                     	ds	2
  2682  0072                     ??_PMD_Initialize:
  2683  0072                     ??_PIN_MANAGER_Initialize:	
  2684                           ; 1 bytes @ 0x2
  2685                           
  2686  0072                     ??_OSCILLATOR_Initialize:	
  2687                           ; 1 bytes @ 0x2
  2688                           
  2689  0072                     ??_NCO1_Initialize:	
  2690                           ; 1 bytes @ 0x2
  2691                           
  2692  0072                     ?_TMR0_SetInterruptHandler:	
  2693                           ; 1 bytes @ 0x2
  2694                           
  2695  0072                     ??_ADC_Initialize:	
  2696                           ; 1 bytes @ 0x2
  2697                           
  2698  0072                     ??_ZCD_Initialize:	
  2699                           ; 1 bytes @ 0x2
  2700                           
  2701  0072                     ??_INTERRUPT_InterruptManager:	
  2702                           ; 1 bytes @ 0x2
  2703                           
  2704  0072                     ??_TMR0_StartTimer:	
  2705                           ; 1 bytes @ 0x2
  2706                           
  2707  0072                     ?_ADC_GetConversion:	
  2708                           ; 1 bytes @ 0x2
  2709                           
  2710  0072                     TMR0_SetInterruptHandler@InterruptHandler:	
  2711                           ; 2 bytes @ 0x2
  2712                           
  2713                           
  2714                           ; 2 bytes @ 0x2
  2715  0072                     	ds	2
  2716  0074                     ??_TMR0_Initialize:
  2717  0074                     ??_TMR0_SetInterruptHandler:	
  2718                           ; 1 bytes @ 0x4
  2719                           
  2720  0074                     ??_ADC_GetConversion:	
  2721                           ; 1 bytes @ 0x4
  2722                           
  2723  0074                     ??_SYSTEM_Initialize:	
  2724                           ; 1 bytes @ 0x4
  2725                           
  2726                           
  2727                           ; 1 bytes @ 0x4
  2728  0074                     	ds	1
  2729  0075                     ADC_GetConversion@channel:
  2730                           
  2731                           ; 1 bytes @ 0x5
  2732  0075                     	ds	1
  2733  0076                     ?_low_pass_filter_1:
  2734  0076                     ?_low_pass_filter_2:	
  2735                           ; 2 bytes @ 0x6
  2736                           
  2737  0076                     low_pass_filter_1@x:	
  2738                           ; 2 bytes @ 0x6
  2739                           
  2740  0076                     low_pass_filter_2@x1:	
  2741                           ; 2 bytes @ 0x6
  2742                           
  2743                           
  2744                           ; 2 bytes @ 0x6
  2745  0076                     	ds	2
  2746  0078                     ??_low_pass_filter_1:
  2747  0078                     ??_low_pass_filter_2:	
  2748                           ; 1 bytes @ 0x8
  2749                           
  2750                           
  2751                           ; 1 bytes @ 0x8
  2752  0078                     	ds	2
  2753                           
  2754                           	psect	cstackBANK0
  2755  0035                     __pcstackBANK0:
  2756  0035                     ??_main:
  2757                           
  2758                           ; 1 bytes @ 0x0
  2759  0035                     	ds	2
  2760  0037                     main@taster_time:
  2761                           
  2762                           ; 2 bytes @ 0x2
  2763  0037                     	ds	2
  2764  0039                     main@slope_increment:
  2765                           
  2766                           ; 2 bytes @ 0x4
  2767  0039                     	ds	2
  2768  003B                     main@slope_up_active:
  2769                           
  2770                           ; 1 bytes @ 0x6
  2771  003B                     	ds	1
  2772  003C                     main@slope_counter:
  2773                           
  2774                           ; 2 bytes @ 0x7
  2775  003C                     	ds	2
  2776  003E                     main@tmp_zadato:
  2777                           
  2778                           ; 2 bytes @ 0x9
  2779  003E                     	ds	2
  2780                           
  2781                           	psect	maintext
  2782  0043                     __pmaintext:	
  2783 ;;
  2784 ;;Main: autosize = 0, tempsize = 2, incstack = 0, save=0
  2785 ;;
  2786 ;; *************** function _main *****************
  2787 ;; Defined at:
  2788 ;;		line 113 in file "main.c"
  2789 ;; Parameters:    Size  Location     Type
  2790 ;;		None
  2791 ;; Auto vars:     Size  Location     Type
  2792 ;;  tmp_zadato      2    9[BANK0 ] int 
  2793 ;;  slope_counte    2    7[BANK0 ] int 
  2794 ;;  slope_increm    2    4[BANK0 ] int 
  2795 ;;  taster_time     2    2[BANK0 ] int 
  2796 ;;  slope_up_act    1    6[BANK0 ] _Bool 
  2797 ;; Return value:  Size  Location     Type
  2798 ;;                  1    wreg      void 
  2799 ;; Registers used:
  2800 ;;		wreg, fsr1l, fsr1h, status,2, status,0, pclath, cstack
  2801 ;; Tracked objects:
  2802 ;;		On entry : B3F/0
  2803 ;;		On exit  : 0/0
  2804 ;;		Unchanged: 0/0
  2805 ;; Data sizes:     COMMON   BANK0   BANK1   BANK2
  2806 ;;      Params:         0       0       0       0
  2807 ;;      Locals:         0       9       0       0
  2808 ;;      Temps:          0       2       0       0
  2809 ;;      Totals:         0      11       0       0
  2810 ;;Total ram usage:       11 bytes
  2811 ;; Hardware stack levels required when called:    5
  2812 ;; This function calls:
  2813 ;;		_ADC_GetConversion
  2814 ;;		_SYSTEM_Initialize
  2815 ;;		_TMR0_StartTimer
  2816 ;;		_low_pass_filter_1
  2817 ;;		_low_pass_filter_2
  2818 ;; This function is called by:
  2819 ;;		Startup code after reset
  2820 ;; This function uses a non-reentrant model
  2821 ;;
  2822                           
  2823                           
  2824                           ;psect for function _main
  2825  0043                     _main:
  2826  0043                     l1419:	
  2827                           ;incstack = 0
  2828                           ; Regs used in _main: [wreg+fsr1l+fsr1h+status,2+status,0+pclath+cstack]
  2829                           
  2830                           
  2831                           ;main.c: 116:     SYSTEM_Initialize();
  2832  0043  3181  21E7  3180   	fcall	_SYSTEM_Initialize
  2833  0046                     l1421:
  2834                           
  2835                           ;main.c: 118:     (INTCONbits.GIE = 1);
  2836  0046  178B               	bsf	11,7	;volatile
  2837  0047                     l1423:
  2838                           
  2839                           ;main.c: 119:     (INTCONbits.PEIE = 1);
  2840  0047  170B               	bsf	11,6	;volatile
  2841  0048                     l1425:
  2842                           
  2843                           ;main.c: 120:     TMR0_StartTimer();
  2844  0048  3182  2271  3180   	fcall	_TMR0_StartTimer
  2845  004B                     l1427:
  2846                           
  2847                           ;main.c: 127:     {;main.c: 129:         slope_increment = low_pass_filter_2(ADC_GetConv
      +                          ersion(pot_slope));
  2848  004B  3000               	movlw	0
  2849  004C  3181  21CC  3180   	fcall	_ADC_GetConversion
  2850  004F  0873               	movf	?_ADC_GetConversion+1,w
  2851  0050  00F7               	movwf	low_pass_filter_2@x1+1
  2852  0051  0872               	movf	?_ADC_GetConversion,w
  2853  0052  00F6               	movwf	low_pass_filter_2@x1
  2854  0053  3181  2130  3180   	fcall	_low_pass_filter_2
  2855  0056  0877               	movf	?_low_pass_filter_2+1,w
  2856  0057  0140               	movlb	0	; select bank0
  2857  0058  00BA               	movwf	main@slope_increment+1
  2858  0059  0876               	movf	?_low_pass_filter_2,w
  2859  005A  00B9               	movwf	main@slope_increment
  2860  005B                     l1429:
  2861                           
  2862                           ;main.c: 130:         tmp_zadato = 1000 - low_pass_filter_1(ADC_GetConversion(pot_power)
      +                          );
  2863  005B  3001               	movlw	1
  2864  005C  3181  21CC  3180   	fcall	_ADC_GetConversion
  2865  005F  0873               	movf	?_ADC_GetConversion+1,w
  2866  0060  00F7               	movwf	low_pass_filter_1@x+1
  2867  0061  0872               	movf	?_ADC_GetConversion,w
  2868  0062  00F6               	movwf	low_pass_filter_1@x
  2869  0063  3181  2167  3180   	fcall	_low_pass_filter_1
  2870  0066  30E8               	movlw	232
  2871  0067  0140               	movlb	0	; select bank0
  2872  0068  00B5               	movwf	??_main
  2873  0069  3003               	movlw	3
  2874  006A  00B6               	movwf	??_main+1
  2875  006B  0876               	movf	?_low_pass_filter_1,w
  2876  006C  0235               	subwf	??_main,w
  2877  006D  00BE               	movwf	main@tmp_zadato
  2878  006E  0877               	movf	?_low_pass_filter_1+1,w
  2879  006F  3B36               	subwfb	??_main+1,w
  2880  0070  00BF               	movwf	main@tmp_zadato+1
  2881                           
  2882                           ;main.c: 131:         if (tmp_zadato < 50) tmp_zadato = 50;
  2883  0071  083F               	movf	main@tmp_zadato+1,w
  2884  0072  3A80               	xorlw	128
  2885  0073  00B5               	movwf	??_main
  2886  0074  3080               	movlw	128
  2887  0075  0235               	subwf	??_main,w
  2888  0076  1D03               	skipz
  2889  0077  287A               	goto	u655
  2890  0078  3032               	movlw	50
  2891  0079  023E               	subwf	main@tmp_zadato,w
  2892  007A                     u655:
  2893  007A  1803               	skipnc
  2894  007B  287D               	goto	u651
  2895  007C  287E               	goto	u650
  2896  007D                     u651:
  2897  007D  2883               	goto	l1433
  2898  007E                     u650:
  2899  007E                     l1431:
  2900  007E  3032               	movlw	50
  2901  007F  0140               	movlb	0	; select bank0
  2902  0080  00BE               	movwf	main@tmp_zadato
  2903  0081  3000               	movlw	0
  2904  0082  00BF               	movwf	main@tmp_zadato+1
  2905  0083                     l1433:
  2906                           
  2907                           ;main.c: 134:         if (RA3 == 0) {
  2908  0083  0140               	movlb	0	; select bank0
  2909  0084  198C               	btfsc	12,3	;volatile
  2910  0085  2887               	goto	u661
  2911  0086  2888               	goto	u660
  2912  0087                     u661:
  2913  0087  28A9               	goto	l1443
  2914  0088                     u660:
  2915  0088                     l1435:
  2916                           
  2917                           ;main.c: 135:             if (taster_time ++ == 200) {
  2918  0088  3001               	movlw	1
  2919  0089  07B7               	addwf	main@taster_time,f
  2920  008A  3000               	movlw	0
  2921  008B  3DB8               	addwfc	main@taster_time+1,f
  2922  008C  30C9               	movlw	201
  2923  008D  0637               	xorwf	main@taster_time,w
  2924  008E  0438               	iorwf	main@taster_time+1,w
  2925  008F  1D03               	btfss	3,2
  2926  0090  2892               	goto	u671
  2927  0091  2893               	goto	u670
  2928  0092                     u671:
  2929  0092  28AB               	goto	l1445
  2930  0093                     u670:
  2931  0093                     l1437:
  2932                           
  2933                           ;main.c: 137:                 scr_out_enable =! scr_out_enable;
  2934  0093  0834               	movf	_scr_out_enable,w
  2935  0094  1903               	btfsc	3,2
  2936  0095  2897               	goto	u681
  2937  0096  2899               	goto	u680
  2938  0097                     u681:
  2939  0097  3001               	movlw	1
  2940  0098  289A               	goto	u690
  2941  0099                     u680:
  2942  0099  3000               	movlw	0
  2943  009A                     u690:
  2944  009A  00B5               	movwf	??_main
  2945  009B  0835               	movf	??_main,w
  2946  009C  00B4               	movwf	_scr_out_enable
  2947                           
  2948                           ;main.c: 138:                 if (scr_out_enable == 1) {
  2949  009D  0334               	decf	_scr_out_enable,w
  2950  009E  1D03               	btfss	3,2
  2951  009F  28A1               	goto	u701
  2952  00A0  28A2               	goto	u700
  2953  00A1                     u701:
  2954  00A1  28AB               	goto	l1445
  2955  00A2                     u700:
  2956  00A2                     l1439:
  2957                           
  2958                           ;main.c: 139:                     slope_up_active = 1;
  2959  00A2  01BB               	clrf	main@slope_up_active
  2960  00A3  0ABB               	incf	main@slope_up_active,f
  2961  00A4                     l1441:
  2962                           
  2963                           ;main.c: 140:                     slope_counter = 1000;
  2964  00A4  30E8               	movlw	232
  2965  00A5  00BC               	movwf	main@slope_counter
  2966  00A6  3003               	movlw	3
  2967  00A7  00BD               	movwf	main@slope_counter+1
  2968  00A8  28AB               	goto	l1445
  2969  00A9                     l1443:
  2970  00A9  01B7               	clrf	main@taster_time
  2971  00AA  01B8               	clrf	main@taster_time+1
  2972  00AB                     l1445:
  2973                           
  2974                           ;main.c: 146:         if (slope_up_active == 1) {
  2975  00AB  033B               	decf	main@slope_up_active,w
  2976  00AC  1D03               	btfss	3,2
  2977  00AD  28AF               	goto	u711
  2978  00AE  28B0               	goto	u710
  2979  00AF                     u711:
  2980  00AF  28DF               	goto	l1457
  2981  00B0                     u710:
  2982  00B0                     l1447:
  2983                           
  2984                           ;main.c: 147:             if (brojac2 >= slope_increment) {
  2985  00B0  083A               	movf	main@slope_increment+1,w
  2986  00B1  022F               	subwf	_brojac2+1,w
  2987  00B2  1D03               	skipz
  2988  00B3  28B6               	goto	u725
  2989  00B4  0839               	movf	main@slope_increment,w
  2990  00B5  022E               	subwf	_brojac2,w
  2991  00B6                     u725:
  2992  00B6  1C03               	skipc
  2993  00B7  28B9               	goto	u721
  2994  00B8  28BA               	goto	u720
  2995  00B9                     u721:
  2996  00B9  28DF               	goto	l1457
  2997  00BA                     u720:
  2998  00BA                     l1449:
  2999                           
  3000                           ;main.c: 148:                 slope_counter --;
  3001  00BA  30FF               	movlw	255
  3002  00BB  07BC               	addwf	main@slope_counter,f
  3003  00BC  30FF               	movlw	255
  3004  00BD  3DBD               	addwfc	main@slope_counter+1,f
  3005                           
  3006                           ;main.c: 149:                 if (slope_counter <= 0 || slope_counter < tmp_zadato) {
  3007  00BE  083D               	movf	main@slope_counter+1,w
  3008  00BF  3A80               	xorlw	128
  3009  00C0  00B5               	movwf	??_main
  3010  00C1  3080               	movlw	128
  3011  00C2  0235               	subwf	??_main,w
  3012  00C3  1D03               	skipz
  3013  00C4  28C7               	goto	u735
  3014  00C5  3001               	movlw	1
  3015  00C6  023C               	subwf	main@slope_counter,w
  3016  00C7                     u735:
  3017  00C7  1C03               	skipc
  3018  00C8  28CA               	goto	u731
  3019  00C9  28CB               	goto	u730
  3020  00CA                     u731:
  3021  00CA  28DA               	goto	l1453
  3022  00CB                     u730:
  3023  00CB                     l1451:
  3024  00CB  0140               	movlb	0	; select bank0
  3025  00CC  083D               	movf	main@slope_counter+1,w
  3026  00CD  3A80               	xorlw	128
  3027  00CE  00B5               	movwf	??_main
  3028  00CF  083F               	movf	main@tmp_zadato+1,w
  3029  00D0  3A80               	xorlw	128
  3030  00D1  0235               	subwf	??_main,w
  3031  00D2  1D03               	skipz
  3032  00D3  28D6               	goto	u745
  3033  00D4  083E               	movf	main@tmp_zadato,w
  3034  00D5  023C               	subwf	main@slope_counter,w
  3035  00D6                     u745:
  3036  00D6  1803               	skipnc
  3037  00D7  28D9               	goto	u741
  3038  00D8  28DA               	goto	u740
  3039  00D9                     u741:
  3040  00D9  28DC               	goto	l1455
  3041  00DA                     u740:
  3042  00DA                     l1453:
  3043                           
  3044                           ;main.c: 151:                     slope_up_active = 0;
  3045  00DA  0140               	movlb	0	; select bank0
  3046  00DB  01BB               	clrf	main@slope_up_active
  3047  00DC                     l1455:	
  3048                           ;main.c: 152:                 } else {
  3049                           
  3050                           
  3051                           ;main.c: 155:                 brojac2 = 0;
  3052  00DC  0140               	movlb	0	; select bank0
  3053  00DD  01AE               	clrf	_brojac2
  3054  00DE  01AF               	clrf	_brojac2+1
  3055  00DF                     l1457:
  3056                           
  3057                           ;main.c: 159:         if (brojac1 > 1500) {
  3058  00DF  3005               	movlw	5
  3059  00E0  0231               	subwf	_brojac1+1,w
  3060  00E1  30DD               	movlw	221
  3061  00E2  1903               	skipnz
  3062  00E3  0230               	subwf	_brojac1,w
  3063  00E4  1C03               	skipc
  3064  00E5  28E7               	goto	u751
  3065  00E6  28E8               	goto	u750
  3066  00E7                     u751:
  3067  00E7  28EC               	goto	l1461
  3068  00E8                     u750:
  3069  00E8                     l1459:
  3070                           
  3071                           ;main.c: 161:             scr_out_enable = 0;
  3072  00E8  01B4               	clrf	_scr_out_enable
  3073                           
  3074                           ;main.c: 162:             slope_up_active = 0;
  3075  00E9  01BB               	clrf	main@slope_up_active
  3076                           
  3077                           ;main.c: 163:             brojac1 = 0;
  3078  00EA  01B0               	clrf	_brojac1
  3079  00EB  01B1               	clrf	_brojac1+1
  3080  00EC                     l1461:
  3081                           
  3082                           ;main.c: 167:         if (scr_out_enable) {
  3083  00EC  0834               	movf	_scr_out_enable,w
  3084  00ED  1903               	btfsc	3,2
  3085  00EE  28F0               	goto	u761
  3086  00EF  28F1               	goto	u760
  3087  00F0                     u761:
  3088  00F0  2928               	goto	l1479
  3089  00F1                     u760:
  3090  00F1                     l1463:
  3091                           
  3092                           ;main.c: 168:             if (tmp_zadato > 990) {
  3093  00F1  083F               	movf	main@tmp_zadato+1,w
  3094  00F2  3A80               	xorlw	128
  3095  00F3  00B5               	movwf	??_main
  3096  00F4  3083               	movlw	131
  3097  00F5  0235               	subwf	??_main,w
  3098  00F6  1D03               	skipz
  3099  00F7  28FA               	goto	u775
  3100  00F8  30DF               	movlw	223
  3101  00F9  023E               	subwf	main@tmp_zadato,w
  3102  00FA                     u775:
  3103  00FA  1C03               	skipc
  3104  00FB  28FD               	goto	u771
  3105  00FC  28FE               	goto	u770
  3106  00FD                     u771:
  3107  00FD  2904               	goto	l1467
  3108  00FE                     u770:
  3109  00FE                     l1465:
  3110                           
  3111                           ;main.c: 169:                 zadat_ugao_adc = 2000;
  3112  00FE  30D0               	movlw	208
  3113  00FF  0140               	movlb	0	; select bank0
  3114  0100  00AC               	movwf	_zadat_ugao_adc
  3115  0101  3007               	movlw	7
  3116  0102  00AD               	movwf	_zadat_ugao_adc+1
  3117                           
  3118                           ;main.c: 170:             } else {
  3119  0103  2913               	goto	l341
  3120  0104                     l1467:
  3121                           
  3122                           ;main.c: 171:                 if (slope_up_active) {
  3123  0104  0140               	movlb	0	; select bank0
  3124  0105  083B               	movf	main@slope_up_active,w
  3125  0106  1903               	btfsc	3,2
  3126  0107  2909               	goto	u781
  3127  0108  290A               	goto	u780
  3128  0109                     u781:
  3129  0109  290F               	goto	l1471
  3130  010A                     u780:
  3131  010A                     l1469:
  3132                           
  3133                           ;main.c: 172:                     zadat_ugao_adc = slope_counter;
  3134  010A  083D               	movf	main@slope_counter+1,w
  3135  010B  00AD               	movwf	_zadat_ugao_adc+1
  3136  010C  083C               	movf	main@slope_counter,w
  3137  010D  00AC               	movwf	_zadat_ugao_adc
  3138                           
  3139                           ;main.c: 173:                 } else {
  3140  010E  2913               	goto	l341
  3141  010F                     l1471:
  3142                           
  3143                           ;main.c: 174:                     zadat_ugao_adc = tmp_zadato;
  3144  010F  083F               	movf	main@tmp_zadato+1,w
  3145  0110  00AD               	movwf	_zadat_ugao_adc+1
  3146  0111  083E               	movf	main@tmp_zadato,w
  3147  0112  00AC               	movwf	_zadat_ugao_adc
  3148  0113                     l341:	
  3149                           ;main.c: 176:             }
  3150                           
  3151                           
  3152                           ;main.c: 178:             if (zadat_ugao_adc < 60) RA5 = 1;
  3153  0113  3000               	movlw	0
  3154  0114  022D               	subwf	_zadat_ugao_adc+1,w
  3155  0115  303C               	movlw	60
  3156  0116  1903               	skipnz
  3157  0117  022C               	subwf	_zadat_ugao_adc,w
  3158  0118  1803               	skipnc
  3159  0119  291B               	goto	u791
  3160  011A  291C               	goto	u790
  3161  011B                     u791:
  3162  011B  291D               	goto	l1475
  3163  011C                     u790:
  3164  011C                     l1473:
  3165  011C  168C               	bsf	12,5	;volatile
  3166  011D                     l1475:
  3167                           
  3168                           ;main.c: 179:             if (zadat_ugao_adc > 80) RA5 = 0;
  3169  011D  3000               	movlw	0
  3170  011E  022D               	subwf	_zadat_ugao_adc+1,w
  3171  011F  3051               	movlw	81
  3172  0120  1903               	skipnz
  3173  0121  022C               	subwf	_zadat_ugao_adc,w
  3174  0122  1C03               	skipc
  3175  0123  2925               	goto	u801
  3176  0124  2926               	goto	u800
  3177  0125                     u801:
  3178  0125  284B               	goto	l1427
  3179  0126                     u800:
  3180  0126                     l1477:
  3181  0126  128C               	bcf	12,5	;volatile
  3182  0127  284B               	goto	l1427
  3183  0128                     l1479:
  3184                           
  3185                           ;main.c: 182:             slope_counter = 0;
  3186  0128  01BC               	clrf	main@slope_counter
  3187  0129  01BD               	clrf	main@slope_counter+1
  3188  012A                     l1481:
  3189                           
  3190                           ;main.c: 183:             zadat_ugao_adc = 2000;
  3191  012A  30D0               	movlw	208
  3192  012B  00AC               	movwf	_zadat_ugao_adc
  3193  012C  3007               	movlw	7
  3194  012D  00AD               	movwf	_zadat_ugao_adc+1
  3195  012E  2926               	goto	l1477
  3196  012F  2825               	ljmp	start
  3197  0130                     __end_of_main:
  3198                           
  3199                           	psect	text1
  3200  0130                     __ptext1:	
  3201 ;; *************** function _low_pass_filter_2 *****************
  3202 ;; Defined at:
  3203 ;;		line 95 in file "main.c"
  3204 ;; Parameters:    Size  Location     Type
  3205 ;;  x1              2    6[COMMON] unsigned int 
  3206 ;; Auto vars:     Size  Location     Type
  3207 ;;		None
  3208 ;; Return value:  Size  Location     Type
  3209 ;;                  2    6[COMMON] unsigned int 
  3210 ;; Registers used:
  3211 ;;		wreg, fsr1l, fsr1h, status,2, status,0
  3212 ;; Tracked objects:
  3213 ;;		On entry : 0/0
  3214 ;;		On exit  : 0/0
  3215 ;;		Unchanged: 0/0
  3216 ;; Data sizes:     COMMON   BANK0   BANK1   BANK2
  3217 ;;      Params:         2       0       0       0
  3218 ;;      Locals:         0       0       0       0
  3219 ;;      Temps:          2       0       0       0
  3220 ;;      Totals:         4       0       0       0
  3221 ;;Total ram usage:        4 bytes
  3222 ;; Hardware stack levels used:    1
  3223 ;; Hardware stack levels required when called:    2
  3224 ;; This function calls:
  3225 ;;		Nothing
  3226 ;; This function is called by:
  3227 ;;		_main
  3228 ;; This function uses a non-reentrant model
  3229 ;;
  3230                           
  3231                           
  3232                           ;psect for function _low_pass_filter_2
  3233  0130                     _low_pass_filter_2:
  3234  0130                     l1329:	
  3235                           ;incstack = 0
  3236                           ; Regs used in _low_pass_filter_2: [wreg+fsr1l+fsr1h+status,2+status,0]
  3237                           
  3238                           
  3239                           ;main.c: 96:  static unsigned int samples1[32], i1 = 0, total1 = 0;;main.c: 98:  total1 
      +                          += x1 - samples1[i1];
  3240  0130  0140               	movlb	0	; select bank0
  3241  0131  3522               	lslf	low_pass_filter_2@i1,w
  3242  0132  3E20               	addlw	(low (low_pass_filter_2@samples1| (0+256)))& (0+255)
  3243  0133  0086               	movwf	6
  3244  0134  3001               	movlw	1	; select bank2/3
  3245  0135  0087               	movwf	7
  3246  0136  3F40               	moviw [0]fsr1
  3247  0137  0276               	subwf	low_pass_filter_2@x1,w
  3248  0138  00F8               	movwf	??_low_pass_filter_2
  3249  0139  3F41               	moviw [1]fsr1
  3250  013A  3B77               	subwfb	low_pass_filter_2@x1+1,w
  3251  013B  00F9               	movwf	??_low_pass_filter_2+1
  3252  013C  0878               	movf	??_low_pass_filter_2,w
  3253  013D  07A0               	addwf	low_pass_filter_2@total1,f
  3254  013E  0879               	movf	??_low_pass_filter_2+1,w
  3255  013F  3DA1               	addwfc	low_pass_filter_2@total1+1,f
  3256                           
  3257                           ;main.c: 99:  samples1[i1] = x1;
  3258  0140  3522               	lslf	low_pass_filter_2@i1,w
  3259  0141  3E20               	addlw	(low (low_pass_filter_2@samples1| (0+256)))& (0+255)
  3260  0142  0086               	movwf	6
  3261  0143  3001               	movlw	1	; select bank2/3
  3262  0144  0087               	movwf	7
  3263  0145  0876               	movf	low_pass_filter_2@x1,w
  3264  0146  3FC0               	movwi [0]fsr1
  3265  0147  0877               	movf	low_pass_filter_2@x1+1,w
  3266  0148  3FC1               	movwi [1]fsr1
  3267  0149                     l1331:
  3268                           
  3269                           ;main.c: 101:  i1 = (i1==(32 -1) ? 0 : i1+1);
  3270  0149  301F               	movlw	31
  3271  014A  0622               	xorwf	low_pass_filter_2@i1,w
  3272  014B  0423               	iorwf	low_pass_filter_2@i1+1,w
  3273  014C  1903               	btfsc	3,2
  3274  014D  294F               	goto	u421
  3275  014E  2950               	goto	u420
  3276  014F                     u421:
  3277  014F  2957               	goto	l1335
  3278  0150                     u420:
  3279  0150                     l1333:
  3280  0150  0822               	movf	low_pass_filter_2@i1,w
  3281  0151  3E01               	addlw	1
  3282  0152  00A2               	movwf	low_pass_filter_2@i1
  3283  0153  3000               	movlw	0
  3284  0154  3D23               	addwfc	low_pass_filter_2@i1+1,w
  3285  0155  00A3               	movwf	low_pass_filter_2@i1+1
  3286  0156  2959               	goto	l1337
  3287  0157                     l1335:
  3288  0157  01A2               	clrf	low_pass_filter_2@i1
  3289  0158  01A3               	clrf	low_pass_filter_2@i1+1
  3290  0159                     l1337:
  3291                           
  3292                           ;main.c: 102:  return total1/32;
  3293  0159  0821               	movf	low_pass_filter_2@total1+1,w
  3294  015A  00F9               	movwf	??_low_pass_filter_2+1
  3295  015B  0820               	movf	low_pass_filter_2@total1,w
  3296  015C  00F8               	movwf	??_low_pass_filter_2
  3297  015D  3005               	movlw	5
  3298  015E                     u435:
  3299  015E  36F9               	lsrf	??_low_pass_filter_2+1,f
  3300  015F  0CF8               	rrf	??_low_pass_filter_2,f
  3301  0160  0B89               	decfsz	9,f
  3302  0161  295E               	goto	u435
  3303  0162  0878               	movf	??_low_pass_filter_2,w
  3304  0163  00F6               	movwf	?_low_pass_filter_2
  3305  0164  0879               	movf	??_low_pass_filter_2+1,w
  3306  0165  00F7               	movwf	?_low_pass_filter_2+1
  3307  0166                     l321:
  3308  0166  0008               	return
  3309  0167                     __end_of_low_pass_filter_2:
  3310                           
  3311                           	psect	text2
  3312  0167                     __ptext2:	
  3313 ;; *************** function _low_pass_filter_1 *****************
  3314 ;; Defined at:
  3315 ;;		line 83 in file "main.c"
  3316 ;; Parameters:    Size  Location     Type
  3317 ;;  x               2    6[COMMON] unsigned int 
  3318 ;; Auto vars:     Size  Location     Type
  3319 ;;		None
  3320 ;; Return value:  Size  Location     Type
  3321 ;;                  2    6[COMMON] unsigned int 
  3322 ;; Registers used:
  3323 ;;		wreg, fsr1l, fsr1h, status,2, status,0
  3324 ;; Tracked objects:
  3325 ;;		On entry : 0/0
  3326 ;;		On exit  : 0/0
  3327 ;;		Unchanged: 0/0
  3328 ;; Data sizes:     COMMON   BANK0   BANK1   BANK2
  3329 ;;      Params:         2       0       0       0
  3330 ;;      Locals:         0       0       0       0
  3331 ;;      Temps:          2       0       0       0
  3332 ;;      Totals:         4       0       0       0
  3333 ;;Total ram usage:        4 bytes
  3334 ;; Hardware stack levels used:    1
  3335 ;; Hardware stack levels required when called:    2
  3336 ;; This function calls:
  3337 ;;		Nothing
  3338 ;; This function is called by:
  3339 ;;		_main
  3340 ;; This function uses a non-reentrant model
  3341 ;;
  3342                           
  3343                           
  3344                           ;psect for function _low_pass_filter_1
  3345  0167                     _low_pass_filter_1:
  3346  0167                     l1317:	
  3347                           ;incstack = 0
  3348                           ; Regs used in _low_pass_filter_1: [wreg+fsr1l+fsr1h+status,2+status,0]
  3349                           
  3350                           
  3351                           ;main.c: 84:  static unsigned int samples[32], i = 0, total = 0;;main.c: 86:  total += x
      +                           - samples[i];
  3352  0167  357A               	lslf	low_pass_filter_1@i,w
  3353  0168  3EA0               	addlw	(low (low_pass_filter_1@samples| 0))& (0+255)
  3354  0169  0086               	movwf	6
  3355  016A  0187               	clrf	7
  3356  016B  3F40               	moviw [0]fsr1
  3357  016C  0276               	subwf	low_pass_filter_1@x,w
  3358  016D  00F8               	movwf	??_low_pass_filter_1
  3359  016E  3F41               	moviw [1]fsr1
  3360  016F  3B77               	subwfb	low_pass_filter_1@x+1,w
  3361  0170  00F9               	movwf	??_low_pass_filter_1+1
  3362  0171  0878               	movf	??_low_pass_filter_1,w
  3363  0172  0140               	movlb	0	; select bank0
  3364  0173  07A4               	addwf	low_pass_filter_1@total,f
  3365  0174  0879               	movf	??_low_pass_filter_1+1,w
  3366  0175  3DA5               	addwfc	low_pass_filter_1@total+1,f
  3367                           
  3368                           ;main.c: 87:  samples[i] = x;
  3369  0176  357A               	lslf	low_pass_filter_1@i,w
  3370  0177  3EA0               	addlw	(low (low_pass_filter_1@samples| 0))& (0+255)
  3371  0178  0086               	movwf	6
  3372  0179  0187               	clrf	7
  3373  017A  0876               	movf	low_pass_filter_1@x,w
  3374  017B  3FC0               	movwi [0]fsr1
  3375  017C  0877               	movf	low_pass_filter_1@x+1,w
  3376  017D  3FC1               	movwi [1]fsr1
  3377  017E                     l1319:
  3378                           
  3379                           ;main.c: 89:  i = (i==(32 -1) ? 0 : i+1);
  3380  017E  301F               	movlw	31
  3381  017F  067A               	xorwf	low_pass_filter_1@i,w
  3382  0180  047B               	iorwf	low_pass_filter_1@i+1,w
  3383  0181  1903               	btfsc	3,2
  3384  0182  2984               	goto	u401
  3385  0183  2985               	goto	u400
  3386  0184                     u401:
  3387  0184  298C               	goto	l1323
  3388  0185                     u400:
  3389  0185                     l1321:
  3390  0185  087A               	movf	low_pass_filter_1@i,w
  3391  0186  3E01               	addlw	1
  3392  0187  00FA               	movwf	low_pass_filter_1@i
  3393  0188  3000               	movlw	0
  3394  0189  3D7B               	addwfc	low_pass_filter_1@i+1,w
  3395  018A  00FB               	movwf	low_pass_filter_1@i+1
  3396  018B  298E               	goto	l1325
  3397  018C                     l1323:
  3398  018C  01FA               	clrf	low_pass_filter_1@i
  3399  018D  01FB               	clrf	low_pass_filter_1@i+1
  3400  018E                     l1325:
  3401                           
  3402                           ;main.c: 90:  return total/32;
  3403  018E  0825               	movf	low_pass_filter_1@total+1,w
  3404  018F  00F9               	movwf	??_low_pass_filter_1+1
  3405  0190  0824               	movf	low_pass_filter_1@total,w
  3406  0191  00F8               	movwf	??_low_pass_filter_1
  3407  0192  3005               	movlw	5
  3408  0193                     u415:
  3409  0193  36F9               	lsrf	??_low_pass_filter_1+1,f
  3410  0194  0CF8               	rrf	??_low_pass_filter_1,f
  3411  0195  0B89               	decfsz	9,f
  3412  0196  2993               	goto	u415
  3413  0197  0878               	movf	??_low_pass_filter_1,w
  3414  0198  00F6               	movwf	?_low_pass_filter_1
  3415  0199  0879               	movf	??_low_pass_filter_1+1,w
  3416  019A  00F7               	movwf	?_low_pass_filter_1+1
  3417  019B                     l308:
  3418  019B  0008               	return
  3419  019C                     __end_of_low_pass_filter_1:
  3420                           
  3421                           	psect	text3
  3422  0271                     __ptext3:	
  3423 ;; *************** function _TMR0_StartTimer *****************
  3424 ;; Defined at:
  3425 ;;		line 87 in file "mcc_generated_files/tmr0.c"
  3426 ;; Parameters:    Size  Location     Type
  3427 ;;		None
  3428 ;; Auto vars:     Size  Location     Type
  3429 ;;		None
  3430 ;; Return value:  Size  Location     Type
  3431 ;;                  1    wreg      void 
  3432 ;; Registers used:
  3433 ;;		None
  3434 ;; Tracked objects:
  3435 ;;		On entry : 0/0
  3436 ;;		On exit  : 0/0
  3437 ;;		Unchanged: 0/0
  3438 ;; Data sizes:     COMMON   BANK0   BANK1   BANK2
  3439 ;;      Params:         0       0       0       0
  3440 ;;      Locals:         0       0       0       0
  3441 ;;      Temps:          0       0       0       0
  3442 ;;      Totals:         0       0       0       0
  3443 ;;Total ram usage:        0 bytes
  3444 ;; Hardware stack levels used:    1
  3445 ;; Hardware stack levels required when called:    2
  3446 ;; This function calls:
  3447 ;;		Nothing
  3448 ;; This function is called by:
  3449 ;;		_main
  3450 ;; This function uses a non-reentrant model
  3451 ;;
  3452                           
  3453                           
  3454                           ;psect for function _TMR0_StartTimer
  3455  0271                     _TMR0_StartTimer:
  3456  0271                     l1315:	
  3457                           ;incstack = 0
  3458                           ; Regs used in _TMR0_StartTimer: []
  3459                           
  3460                           
  3461                           ;mcc_generated_files/tmr0.c: 90:     T0CON0bits.T0EN = 1;
  3462  0271  014B               	movlb	11	; select bank11
  3463  0272  179E               	bsf	30,7	;volatile
  3464  0273                     l191:
  3465  0273  0008               	return
  3466  0274                     __end_of_TMR0_StartTimer:
  3467                           
  3468                           	psect	text4
  3469  01E7                     __ptext4:	
  3470 ;; *************** function _SYSTEM_Initialize *****************
  3471 ;; Defined at:
  3472 ;;		line 50 in file "mcc_generated_files/mcc.c"
  3473 ;; Parameters:    Size  Location     Type
  3474 ;;		None
  3475 ;; Auto vars:     Size  Location     Type
  3476 ;;		None
  3477 ;; Return value:  Size  Location     Type
  3478 ;;                  1    wreg      void 
  3479 ;; Registers used:
  3480 ;;		wreg, status,2, status,0, pclath, cstack
  3481 ;; Tracked objects:
  3482 ;;		On entry : 0/0
  3483 ;;		On exit  : 0/0
  3484 ;;		Unchanged: 0/0
  3485 ;; Data sizes:     COMMON   BANK0   BANK1   BANK2
  3486 ;;      Params:         0       0       0       0
  3487 ;;      Locals:         0       0       0       0
  3488 ;;      Temps:          0       0       0       0
  3489 ;;      Totals:         0       0       0       0
  3490 ;;Total ram usage:        0 bytes
  3491 ;; Hardware stack levels used:    1
  3492 ;; Hardware stack levels required when called:    4
  3493 ;; This function calls:
  3494 ;;		_ADC_Initialize
  3495 ;;		_NCO1_Initialize
  3496 ;;		_OSCILLATOR_Initialize
  3497 ;;		_PIN_MANAGER_Initialize
  3498 ;;		_PMD_Initialize
  3499 ;;		_TMR0_Initialize
  3500 ;;		_ZCD_Initialize
  3501 ;; This function is called by:
  3502 ;;		_main
  3503 ;; This function uses a non-reentrant model
  3504 ;;
  3505                           
  3506                           
  3507                           ;psect for function _SYSTEM_Initialize
  3508  01E7                     _SYSTEM_Initialize:
  3509  01E7                     l1301:	
  3510                           ;incstack = 0
  3511                           ; Regs used in _SYSTEM_Initialize: [wreg+status,2+status,0+pclath+cstack]
  3512                           
  3513                           
  3514                           ;mcc_generated_files/mcc.c: 52:     PMD_Initialize();
  3515  01E7  3182  224E  3181   	fcall	_PMD_Initialize
  3516  01EA                     l1303:
  3517                           
  3518                           ;mcc_generated_files/mcc.c: 53:     PIN_MANAGER_Initialize();
  3519  01EA  3182  2227  3181   	fcall	_PIN_MANAGER_Initialize
  3520  01ED                     l1305:
  3521                           
  3522                           ;mcc_generated_files/mcc.c: 54:     OSCILLATOR_Initialize();
  3523  01ED  3182  2244  3181   	fcall	_OSCILLATOR_Initialize
  3524  01F0                     l1307:
  3525                           
  3526                           ;mcc_generated_files/mcc.c: 55:     ADC_Initialize();
  3527  01F0  3182  2256  3181   	fcall	_ADC_Initialize
  3528  01F3                     l1309:
  3529                           
  3530                           ;mcc_generated_files/mcc.c: 56:     NCO1_Initialize();
  3531  01F3  3182  2237  3181   	fcall	_NCO1_Initialize
  3532  01F6                     l1311:
  3533                           
  3534                           ;mcc_generated_files/mcc.c: 57:     TMR0_Initialize();
  3535  01F6  3182  2213  3181   	fcall	_TMR0_Initialize
  3536  01F9                     l1313:
  3537                           
  3538                           ;mcc_generated_files/mcc.c: 58:     ZCD_Initialize();
  3539  01F9  3182  225E  3181   	fcall	_ZCD_Initialize
  3540  01FC                     l126:
  3541  01FC  0008               	return
  3542  01FD                     __end_of_SYSTEM_Initialize:
  3543                           
  3544                           	psect	text5
  3545  025E                     __ptext5:	
  3546 ;; *************** function _ZCD_Initialize *****************
  3547 ;; Defined at:
  3548 ;;		line 58 in file "mcc_generated_files/zcd.c"
  3549 ;; Parameters:    Size  Location     Type
  3550 ;;		None
  3551 ;; Auto vars:     Size  Location     Type
  3552 ;;		None
  3553 ;; Return value:  Size  Location     Type
  3554 ;;                  1    wreg      void 
  3555 ;; Registers used:
  3556 ;;		wreg
  3557 ;; Tracked objects:
  3558 ;;		On entry : 0/0
  3559 ;;		On exit  : 0/0
  3560 ;;		Unchanged: 0/0
  3561 ;; Data sizes:     COMMON   BANK0   BANK1   BANK2
  3562 ;;      Params:         0       0       0       0
  3563 ;;      Locals:         0       0       0       0
  3564 ;;      Temps:          0       0       0       0
  3565 ;;      Totals:         0       0       0       0
  3566 ;;Total ram usage:        0 bytes
  3567 ;; Hardware stack levels used:    1
  3568 ;; Hardware stack levels required when called:    2
  3569 ;; This function calls:
  3570 ;;		Nothing
  3571 ;; This function is called by:
  3572 ;;		_SYSTEM_Initialize
  3573 ;; This function uses a non-reentrant model
  3574 ;;
  3575                           
  3576                           
  3577                           ;psect for function _ZCD_Initialize
  3578  025E                     _ZCD_Initialize:
  3579  025E                     l1211:	
  3580                           ;incstack = 0
  3581                           ; Regs used in _ZCD_Initialize: [wreg]
  3582                           
  3583                           
  3584                           ;mcc_generated_files/zcd.c: 63:     ZCDCON = 0x83;
  3585  025E  3083               	movlw	131
  3586  025F  0152               	movlb	18	; select bank18
  3587  0260  009F               	movwf	31	;volatile
  3588  0261                     l1213:
  3589                           
  3590                           ;mcc_generated_files/zcd.c: 66:     PIR2bits.ZCDIF = 0;
  3591  0261  014E               	movlb	14	; select bank14
  3592  0262  130E               	bcf	14,6	;volatile
  3593  0263                     l1215:
  3594                           
  3595                           ;mcc_generated_files/zcd.c: 69:     PIE2bits.ZCDIE = 1;
  3596  0263  1718               	bsf	24,6	;volatile
  3597  0264                     l32:
  3598  0264  0008               	return
  3599  0265                     __end_of_ZCD_Initialize:
  3600                           
  3601                           	psect	text6
  3602  0213                     __ptext6:	
  3603 ;; *************** function _TMR0_Initialize *****************
  3604 ;; Defined at:
  3605 ;;		line 61 in file "mcc_generated_files/tmr0.c"
  3606 ;; Parameters:    Size  Location     Type
  3607 ;;		None
  3608 ;; Auto vars:     Size  Location     Type
  3609 ;;		None
  3610 ;; Return value:  Size  Location     Type
  3611 ;;                  1    wreg      void 
  3612 ;; Registers used:
  3613 ;;		wreg, status,2, status,0, pclath, cstack
  3614 ;; Tracked objects:
  3615 ;;		On entry : 0/0
  3616 ;;		On exit  : 0/0
  3617 ;;		Unchanged: 0/0
  3618 ;; Data sizes:     COMMON   BANK0   BANK1   BANK2
  3619 ;;      Params:         0       0       0       0
  3620 ;;      Locals:         0       0       0       0
  3621 ;;      Temps:          0       0       0       0
  3622 ;;      Totals:         0       0       0       0
  3623 ;;Total ram usage:        0 bytes
  3624 ;; Hardware stack levels used:    1
  3625 ;; Hardware stack levels required when called:    3
  3626 ;; This function calls:
  3627 ;;		_TMR0_SetInterruptHandler
  3628 ;; This function is called by:
  3629 ;;		_SYSTEM_Initialize
  3630 ;; This function uses a non-reentrant model
  3631 ;;
  3632                           
  3633                           
  3634                           ;psect for function _TMR0_Initialize
  3635  0213                     _TMR0_Initialize:
  3636  0213                     l1257:	
  3637                           ;incstack = 0
  3638                           ; Regs used in _TMR0_Initialize: [wreg+status,2+status,0+pclath+cstack]
  3639                           
  3640                           
  3641                           ;mcc_generated_files/tmr0.c: 66:     T0CON1 = 0x62;
  3642  0213  3062               	movlw	98
  3643  0214  014B               	movlb	11	; select bank11
  3644  0215  009F               	movwf	31	;volatile
  3645                           
  3646                           ;mcc_generated_files/tmr0.c: 69:     TMR0H = 0x4F;
  3647  0216  304F               	movlw	79
  3648  0217  009D               	movwf	29	;volatile
  3649  0218                     l1259:
  3650                           
  3651                           ;mcc_generated_files/tmr0.c: 72:     TMR0L = 0x00;
  3652  0218  019C               	clrf	28	;volatile
  3653  0219                     l1261:
  3654                           
  3655                           ;mcc_generated_files/tmr0.c: 75:     PIR0bits.TMR0IF = 0;
  3656  0219  014E               	movlb	14	; select bank14
  3657  021A  128C               	bcf	12,5	;volatile
  3658  021B                     l1263:
  3659                           
  3660                           ;mcc_generated_files/tmr0.c: 78:     PIE0bits.TMR0IE = 1;
  3661  021B  1696               	bsf	22,5	;volatile
  3662  021C                     l1265:
  3663                           
  3664                           ;mcc_generated_files/tmr0.c: 81:     TMR0_SetInterruptHandler(TMR0_DefaultInterruptHandl
      +                          er);
  3665  021C  3000               	movlw	0
  3666  021D  00F2               	movwf	TMR0_SetInterruptHandler@InterruptHandler
  3667  021E  3000               	movlw	0
  3668  021F  00F3               	movwf	TMR0_SetInterruptHandler@InterruptHandler+1
  3669  0220  3182  226B  3182   	fcall	_TMR0_SetInterruptHandler
  3670  0223                     l1267:
  3671                           
  3672                           ;mcc_generated_files/tmr0.c: 84:     T0CON0 = 0x80;
  3673  0223  3080               	movlw	128
  3674  0224  014B               	movlb	11	; select bank11
  3675  0225  009E               	movwf	30	;volatile
  3676  0226                     l188:
  3677  0226  0008               	return
  3678  0227                     __end_of_TMR0_Initialize:
  3679                           
  3680                           	psect	text7
  3681  026B                     __ptext7:	
  3682 ;; *************** function _TMR0_SetInterruptHandler *****************
  3683 ;; Defined at:
  3684 ;;		line 123 in file "mcc_generated_files/tmr0.c"
  3685 ;; Parameters:    Size  Location     Type
  3686 ;;  InterruptHan    2    2[COMMON] PTR FTN()void 
  3687 ;;		 -> TMR0_DefaultInterruptHandler(1), 
  3688 ;; Auto vars:     Size  Location     Type
  3689 ;;		None
  3690 ;; Return value:  Size  Location     Type
  3691 ;;                  1    wreg      void 
  3692 ;; Registers used:
  3693 ;;		wreg
  3694 ;; Tracked objects:
  3695 ;;		On entry : 0/0
  3696 ;;		On exit  : 0/0
  3697 ;;		Unchanged: 0/0
  3698 ;; Data sizes:     COMMON   BANK0   BANK1   BANK2
  3699 ;;      Params:         2       0       0       0
  3700 ;;      Locals:         0       0       0       0
  3701 ;;      Temps:          0       0       0       0
  3702 ;;      Totals:         2       0       0       0
  3703 ;;Total ram usage:        2 bytes
  3704 ;; Hardware stack levels used:    1
  3705 ;; Hardware stack levels required when called:    2
  3706 ;; This function calls:
  3707 ;;		Nothing
  3708 ;; This function is called by:
  3709 ;;		_TMR0_Initialize
  3710 ;; This function uses a non-reentrant model
  3711 ;;
  3712                           
  3713                           
  3714                           ;psect for function _TMR0_SetInterruptHandler
  3715  026B                     _TMR0_SetInterruptHandler:
  3716  026B                     l1203:	
  3717                           ;incstack = 0
  3718                           ; Regs used in _TMR0_SetInterruptHandler: [wreg]
  3719                           
  3720                           
  3721                           ;mcc_generated_files/tmr0.c: 124:     TMR0_InterruptHandler = InterruptHandler;
  3722  026B  0873               	movf	TMR0_SetInterruptHandler@InterruptHandler+1,w
  3723  026C  0140               	movlb	0	; select bank0
  3724  026D  00C1               	movwf	_TMR0_InterruptHandler+1
  3725  026E  0872               	movf	TMR0_SetInterruptHandler@InterruptHandler,w
  3726  026F  00C0               	movwf	_TMR0_InterruptHandler
  3727  0270                     l194:
  3728  0270  0008               	return
  3729  0271                     __end_of_TMR0_SetInterruptHandler:
  3730                           
  3731                           	psect	text8
  3732  024E                     __ptext8:	
  3733 ;; *************** function _PMD_Initialize *****************
  3734 ;; Defined at:
  3735 ;;		line 77 in file "mcc_generated_files/mcc.c"
  3736 ;; Parameters:    Size  Location     Type
  3737 ;;		None
  3738 ;; Auto vars:     Size  Location     Type
  3739 ;;		None
  3740 ;; Return value:  Size  Location     Type
  3741 ;;                  1    wreg      void 
  3742 ;; Registers used:
  3743 ;;		status,2
  3744 ;; Tracked objects:
  3745 ;;		On entry : 0/0
  3746 ;;		On exit  : 0/0
  3747 ;;		Unchanged: 0/0
  3748 ;; Data sizes:     COMMON   BANK0   BANK1   BANK2
  3749 ;;      Params:         0       0       0       0
  3750 ;;      Locals:         0       0       0       0
  3751 ;;      Temps:          0       0       0       0
  3752 ;;      Totals:         0       0       0       0
  3753 ;;Total ram usage:        0 bytes
  3754 ;; Hardware stack levels used:    1
  3755 ;; Hardware stack levels required when called:    2
  3756 ;; This function calls:
  3757 ;;		Nothing
  3758 ;; This function is called by:
  3759 ;;		_SYSTEM_Initialize
  3760 ;; This function uses a non-reentrant model
  3761 ;;
  3762                           
  3763                           
  3764                           ;psect for function _PMD_Initialize
  3765  024E                     _PMD_Initialize:
  3766  024E                     l1217:	
  3767                           ;incstack = 0
  3768                           ; Regs used in _PMD_Initialize: [status,2]
  3769                           
  3770                           
  3771                           ;mcc_generated_files/mcc.c: 80:     PMD0 = 0x00;
  3772  024E  014F               	movlb	15	; select bank15
  3773  024F  0196               	clrf	22	;volatile
  3774                           
  3775                           ;mcc_generated_files/mcc.c: 82:     PMD1 = 0x00;
  3776  0250  0197               	clrf	23	;volatile
  3777                           
  3778                           ;mcc_generated_files/mcc.c: 84:     PMD2 = 0x00;
  3779  0251  0198               	clrf	24	;volatile
  3780                           
  3781                           ;mcc_generated_files/mcc.c: 86:     PMD3 = 0x00;
  3782  0252  0199               	clrf	25	;volatile
  3783                           
  3784                           ;mcc_generated_files/mcc.c: 88:     PMD4 = 0x00;
  3785  0253  019A               	clrf	26	;volatile
  3786                           
  3787                           ;mcc_generated_files/mcc.c: 90:     PMD5 = 0x00;
  3788  0254  019B               	clrf	27	;volatile
  3789  0255                     l132:
  3790  0255  0008               	return
  3791  0256                     __end_of_PMD_Initialize:
  3792                           
  3793                           	psect	text9
  3794  0227                     __ptext9:	
  3795 ;; *************** function _PIN_MANAGER_Initialize *****************
  3796 ;; Defined at:
  3797 ;;		line 55 in file "mcc_generated_files/pin_manager.c"
  3798 ;; Parameters:    Size  Location     Type
  3799 ;;		None
  3800 ;; Auto vars:     Size  Location     Type
  3801 ;;		None
  3802 ;; Return value:  Size  Location     Type
  3803 ;;                  1    wreg      void 
  3804 ;; Registers used:
  3805 ;;		wreg, status,2
  3806 ;; Tracked objects:
  3807 ;;		On entry : 0/0
  3808 ;;		On exit  : 0/0
  3809 ;;		Unchanged: 0/0
  3810 ;; Data sizes:     COMMON   BANK0   BANK1   BANK2
  3811 ;;      Params:         0       0       0       0
  3812 ;;      Locals:         0       0       0       0
  3813 ;;      Temps:          0       0       0       0
  3814 ;;      Totals:         0       0       0       0
  3815 ;;Total ram usage:        0 bytes
  3816 ;; Hardware stack levels used:    1
  3817 ;; Hardware stack levels required when called:    2
  3818 ;; This function calls:
  3819 ;;		Nothing
  3820 ;; This function is called by:
  3821 ;;		_SYSTEM_Initialize
  3822 ;; This function uses a non-reentrant model
  3823 ;;
  3824                           
  3825                           
  3826                           ;psect for function _PIN_MANAGER_Initialize
  3827  0227                     _PIN_MANAGER_Initialize:
  3828  0227                     l1219:	
  3829                           ;incstack = 0
  3830                           ; Regs used in _PIN_MANAGER_Initialize: [wreg+status,2]
  3831                           
  3832                           
  3833                           ;mcc_generated_files/pin_manager.c: 60:     LATA = 0x00;
  3834  0227  0140               	movlb	0	; select bank0
  3835  0228  0198               	clrf	24	;volatile
  3836  0229                     l1221:
  3837                           
  3838                           ;mcc_generated_files/pin_manager.c: 65:     TRISA = 0x07;
  3839  0229  3007               	movlw	7
  3840  022A  0092               	movwf	18	;volatile
  3841  022B                     l1223:
  3842                           
  3843                           ;mcc_generated_files/pin_manager.c: 70:     ANSELA = 0x07;
  3844  022B  3007               	movlw	7
  3845  022C  017E               	movlb	62	; select bank62
  3846  022D  00B8               	movwf	56	;volatile
  3847                           
  3848                           ;mcc_generated_files/pin_manager.c: 75:     WPUA = 0x00;
  3849  022E  01B9               	clrf	57	;volatile
  3850                           
  3851                           ;mcc_generated_files/pin_manager.c: 80:     ODCONA = 0x00;
  3852  022F  01BA               	clrf	58	;volatile
  3853  0230                     l1225:
  3854                           
  3855                           ;mcc_generated_files/pin_manager.c: 85:     SLRCONA = 0x37;
  3856  0230  3037               	movlw	55
  3857  0231  00BB               	movwf	59	;volatile
  3858  0232                     l1227:
  3859                           
  3860                           ;mcc_generated_files/pin_manager.c: 90:     INLVLA = 0x3F;
  3861  0232  303F               	movlw	63
  3862  0233  00BC               	movwf	60	;volatile
  3863  0234                     l1229:
  3864                           
  3865                           ;mcc_generated_files/pin_manager.c: 99:     RA4PPS = 0x1A;
  3866  0234  301A               	movlw	26
  3867  0235  0094               	movwf	20	;volatile
  3868  0236                     l151:
  3869  0236  0008               	return
  3870  0237                     __end_of_PIN_MANAGER_Initialize:
  3871                           
  3872                           	psect	text10
  3873  0244                     __ptext10:	
  3874 ;; *************** function _OSCILLATOR_Initialize *****************
  3875 ;; Defined at:
  3876 ;;		line 61 in file "mcc_generated_files/mcc.c"
  3877 ;; Parameters:    Size  Location     Type
  3878 ;;		None
  3879 ;; Auto vars:     Size  Location     Type
  3880 ;;		None
  3881 ;; Return value:  Size  Location     Type
  3882 ;;                  1    wreg      void 
  3883 ;; Registers used:
  3884 ;;		wreg, status,2
  3885 ;; Tracked objects:
  3886 ;;		On entry : 0/0
  3887 ;;		On exit  : 0/0
  3888 ;;		Unchanged: 0/0
  3889 ;; Data sizes:     COMMON   BANK0   BANK1   BANK2
  3890 ;;      Params:         0       0       0       0
  3891 ;;      Locals:         0       0       0       0
  3892 ;;      Temps:          0       0       0       0
  3893 ;;      Totals:         0       0       0       0
  3894 ;;Total ram usage:        0 bytes
  3895 ;; Hardware stack levels used:    1
  3896 ;; Hardware stack levels required when called:    2
  3897 ;; This function calls:
  3898 ;;		Nothing
  3899 ;; This function is called by:
  3900 ;;		_SYSTEM_Initialize
  3901 ;; This function uses a non-reentrant model
  3902 ;;
  3903                           
  3904                           
  3905                           ;psect for function _OSCILLATOR_Initialize
  3906  0244                     _OSCILLATOR_Initialize:
  3907  0244                     l1231:	
  3908                           ;incstack = 0
  3909                           ; Regs used in _OSCILLATOR_Initialize: [wreg+status,2]
  3910                           
  3911                           
  3912                           ;mcc_generated_files/mcc.c: 64:     OSCCON1 = 0x60;
  3913  0244  3060               	movlw	96
  3914  0245  0151               	movlb	17	; select bank17
  3915  0246  008D               	movwf	13	;volatile
  3916  0247                     l1233:
  3917                           
  3918                           ;mcc_generated_files/mcc.c: 66:     OSCCON3 = 0x00;
  3919  0247  018F               	clrf	15	;volatile
  3920  0248                     l1235:
  3921                           
  3922                           ;mcc_generated_files/mcc.c: 68:     OSCEN = 0x00;
  3923  0248  0191               	clrf	17	;volatile
  3924                           
  3925                           ;mcc_generated_files/mcc.c: 70:     OSCFRQ = 0x06;
  3926  0249  3006               	movlw	6
  3927  024A  0093               	movwf	19	;volatile
  3928  024B                     l1237:
  3929                           
  3930                           ;mcc_generated_files/mcc.c: 72:     OSCSTAT = 0x00;
  3931  024B  0190               	clrf	16	;volatile
  3932  024C                     l1239:
  3933                           
  3934                           ;mcc_generated_files/mcc.c: 74:     OSCTUNE = 0x00;
  3935  024C  0192               	clrf	18	;volatile
  3936  024D                     l129:
  3937  024D  0008               	return
  3938  024E                     __end_of_OSCILLATOR_Initialize:
  3939                           
  3940                           	psect	text11
  3941  0237                     __ptext11:	
  3942 ;; *************** function _NCO1_Initialize *****************
  3943 ;; Defined at:
  3944 ;;		line 58 in file "mcc_generated_files/nco1.c"
  3945 ;; Parameters:    Size  Location     Type
  3946 ;;		None
  3947 ;; Auto vars:     Size  Location     Type
  3948 ;;		None
  3949 ;; Return value:  Size  Location     Type
  3950 ;;                  1    wreg      void 
  3951 ;; Registers used:
  3952 ;;		wreg, status,2
  3953 ;; Tracked objects:
  3954 ;;		On entry : 0/0
  3955 ;;		On exit  : 0/0
  3956 ;;		Unchanged: 0/0
  3957 ;; Data sizes:     COMMON   BANK0   BANK1   BANK2
  3958 ;;      Params:         0       0       0       0
  3959 ;;      Locals:         0       0       0       0
  3960 ;;      Temps:          0       0       0       0
  3961 ;;      Totals:         0       0       0       0
  3962 ;;Total ram usage:        0 bytes
  3963 ;; Hardware stack levels used:    1
  3964 ;; Hardware stack levels required when called:    2
  3965 ;; This function calls:
  3966 ;;		Nothing
  3967 ;; This function is called by:
  3968 ;;		_SYSTEM_Initialize
  3969 ;; This function uses a non-reentrant model
  3970 ;;
  3971                           
  3972                           
  3973                           ;psect for function _NCO1_Initialize
  3974  0237                     _NCO1_Initialize:
  3975  0237                     l1241:	
  3976                           ;incstack = 0
  3977                           ; Regs used in _NCO1_Initialize: [wreg+status,2]
  3978                           
  3979                           
  3980                           ;mcc_generated_files/nco1.c: 62:     NCO1CON = 0x00;
  3981  0237  014B               	movlb	11	; select bank11
  3982  0238  0192               	clrf	18	;volatile
  3983  0239                     l1243:
  3984                           
  3985                           ;mcc_generated_files/nco1.c: 64:     NCO1CLK = 0x01;
  3986  0239  3001               	movlw	1
  3987  023A  0093               	movwf	19	;volatile
  3988  023B                     l1245:
  3989                           
  3990                           ;mcc_generated_files/nco1.c: 66:     NCO1ACCU = 0x00;
  3991  023B  018E               	clrf	14	;volatile
  3992  023C                     l1247:
  3993                           
  3994                           ;mcc_generated_files/nco1.c: 68:     NCO1ACCH = 0x00;
  3995  023C  018D               	clrf	13	;volatile
  3996  023D                     l1249:
  3997                           
  3998                           ;mcc_generated_files/nco1.c: 70:     NCO1ACCL = 0x00;
  3999  023D  018C               	clrf	12	;volatile
  4000  023E                     l1251:
  4001                           
  4002                           ;mcc_generated_files/nco1.c: 72:     NCO1INCU = 0x00;
  4003  023E  0191               	clrf	17	;volatile
  4004  023F                     l1253:
  4005                           
  4006                           ;mcc_generated_files/nco1.c: 74:     NCO1INCH = 0x02;
  4007  023F  3002               	movlw	2
  4008  0240  0090               	movwf	16	;volatile
  4009  0241                     l1255:
  4010                           
  4011                           ;mcc_generated_files/nco1.c: 76:     NCO1INCL = 0x8F;
  4012  0241  308F               	movlw	143
  4013  0242  008F               	movwf	15	;volatile
  4014  0243                     l216:
  4015  0243  0008               	return
  4016  0244                     __end_of_NCO1_Initialize:
  4017                           
  4018                           	psect	text12
  4019  0256                     __ptext12:	
  4020 ;; *************** function _ADC_Initialize *****************
  4021 ;; Defined at:
  4022 ;;		line 67 in file "mcc_generated_files/adc.c"
  4023 ;; Parameters:    Size  Location     Type
  4024 ;;		None
  4025 ;; Auto vars:     Size  Location     Type
  4026 ;;		None
  4027 ;; Return value:  Size  Location     Type
  4028 ;;                  1    wreg      void 
  4029 ;; Registers used:
  4030 ;;		wreg, status,2
  4031 ;; Tracked objects:
  4032 ;;		On entry : 0/0
  4033 ;;		On exit  : 0/0
  4034 ;;		Unchanged: 0/0
  4035 ;; Data sizes:     COMMON   BANK0   BANK1   BANK2
  4036 ;;      Params:         0       0       0       0
  4037 ;;      Locals:         0       0       0       0
  4038 ;;      Temps:          0       0       0       0
  4039 ;;      Totals:         0       0       0       0
  4040 ;;Total ram usage:        0 bytes
  4041 ;; Hardware stack levels used:    1
  4042 ;; Hardware stack levels required when called:    2
  4043 ;; This function calls:
  4044 ;;		Nothing
  4045 ;; This function is called by:
  4046 ;;		_SYSTEM_Initialize
  4047 ;; This function uses a non-reentrant model
  4048 ;;
  4049                           
  4050                           
  4051                           ;psect for function _ADC_Initialize
  4052  0256                     _ADC_Initialize:
  4053  0256                     l1205:	
  4054                           ;incstack = 0
  4055                           ; Regs used in _ADC_Initialize: [wreg+status,2]
  4056                           
  4057                           
  4058                           ;mcc_generated_files/adc.c: 72:     ADCON1 = 0xE0;
  4059  0256  30E0               	movlw	224
  4060  0257  0141               	movlb	1	; select bank1
  4061  0258  009E               	movwf	30	;volatile
  4062  0259                     l1207:
  4063                           
  4064                           ;mcc_generated_files/adc.c: 75:     ADRESL = 0x00;
  4065  0259  019B               	clrf	27	;volatile
  4066  025A                     l1209:
  4067                           
  4068                           ;mcc_generated_files/adc.c: 78:     ADRESH = 0x00;
  4069  025A  019C               	clrf	28	;volatile
  4070                           
  4071                           ;mcc_generated_files/adc.c: 81:     ADCON0 = 0x01;
  4072  025B  3001               	movlw	1
  4073  025C  009D               	movwf	29	;volatile
  4074  025D                     l17:
  4075  025D  0008               	return
  4076  025E                     __end_of_ADC_Initialize:
  4077                           
  4078                           	psect	text13
  4079  01CC                     __ptext13:	
  4080 ;; *************** function _ADC_GetConversion *****************
  4081 ;; Defined at:
  4082 ;;		line 112 in file "mcc_generated_files/adc.c"
  4083 ;; Parameters:    Size  Location     Type
  4084 ;;  channel         1    wreg     enum E5870
  4085 ;; Auto vars:     Size  Location     Type
  4086 ;;  channel         1    5[COMMON] enum E5870
  4087 ;; Return value:  Size  Location     Type
  4088 ;;                  2    2[COMMON] unsigned short 
  4089 ;; Registers used:
  4090 ;;		wreg, status,2, status,0
  4091 ;; Tracked objects:
  4092 ;;		On entry : 0/0
  4093 ;;		On exit  : 0/0
  4094 ;;		Unchanged: 0/0
  4095 ;; Data sizes:     COMMON   BANK0   BANK1   BANK2
  4096 ;;      Params:         2       0       0       0
  4097 ;;      Locals:         1       0       0       0
  4098 ;;      Temps:          1       0       0       0
  4099 ;;      Totals:         4       0       0       0
  4100 ;;Total ram usage:        4 bytes
  4101 ;; Hardware stack levels used:    1
  4102 ;; Hardware stack levels required when called:    2
  4103 ;; This function calls:
  4104 ;;		Nothing
  4105 ;; This function is called by:
  4106 ;;		_main
  4107 ;; This function uses a non-reentrant model
  4108 ;;
  4109                           
  4110                           
  4111                           ;psect for function _ADC_GetConversion
  4112  01CC                     _ADC_GetConversion:
  4113                           
  4114                           ;incstack = 0
  4115                           ; Regs used in _ADC_GetConversion: [wreg+status,2+status,0]
  4116                           ;ADC_GetConversion@channel stored from wreg
  4117  01CC  00F5               	movwf	ADC_GetConversion@channel
  4118  01CD                     l1269:
  4119                           
  4120                           ;mcc_generated_files/adc.c: 112: adc_result_t ADC_GetConversion(adc_channel_t channel);m
      +                          cc_generated_files/adc.c: 113: {;mcc_generated_files/adc.c: 115:     ADCON0bits.CHS = ch
      +                          annel;
  4121  01CD  0875               	movf	ADC_GetConversion@channel,w
  4122  01CE  00F4               	movwf	??_ADC_GetConversion
  4123  01CF  0DF4               	rlf	??_ADC_GetConversion,f
  4124  01D0  0DF4               	rlf	??_ADC_GetConversion,f
  4125  01D1  0141               	movlb	1	; select bank1
  4126  01D2  081D               	movf	29,w	;volatile
  4127  01D3  0674               	xorwf	??_ADC_GetConversion,w
  4128  01D4  3903               	andlw	-253
  4129  01D5  0674               	xorwf	??_ADC_GetConversion,w
  4130  01D6  009D               	movwf	29	;volatile
  4131  01D7                     l1271:
  4132                           
  4133                           ;mcc_generated_files/adc.c: 118:     ADCON0bits.ADON = 1;
  4134  01D7  141D               	bsf	29,0	;volatile
  4135  01D8                     l1273:
  4136                           
  4137                           ;mcc_generated_files/adc.c: 121:     _delay((unsigned long)((5)*(32000000/4000000.0)));
  4138  01D8  300D               	movlw	13
  4139  01D9                     u817:
  4140  01D9  0B89               	decfsz	9,f
  4141  01DA  29D9               	goto	u817
  4142  01DB  0000               	nop
  4143  01DC                     l1275:
  4144                           
  4145                           ;mcc_generated_files/adc.c: 124:     ADCON0bits.GOnDONE = 1;
  4146  01DC  0141               	movlb	1	; select bank1
  4147  01DD  149D               	bsf	29,1	;volatile
  4148  01DE                     l20:	
  4149                           ;mcc_generated_files/adc.c: 128:     {;mcc_generated_files/adc.c: 129:     }
  4150                           
  4151                           
  4152                           ;mcc_generated_files/adc.c: 127:     while (ADCON0bits.GOnDONE)
  4153  01DE  189D               	btfsc	29,1	;volatile
  4154  01DF  29E1               	goto	u351
  4155  01E0  29E2               	goto	u350
  4156  01E1                     u351:
  4157  01E1  29DE               	goto	l20
  4158  01E2                     u350:
  4159  01E2                     l1277:
  4160                           
  4161                           ;mcc_generated_files/adc.c: 132:     return ((adc_result_t)((ADRESH << 8) + ADRESL));
  4162  01E2  081C               	movf	28,w	;volatile
  4163  01E3  00F3               	movwf	?_ADC_GetConversion+1
  4164  01E4  081B               	movf	27,w	;volatile
  4165  01E5  00F2               	movwf	?_ADC_GetConversion
  4166  01E6                     l23:
  4167  01E6  0008               	return
  4168  01E7                     __end_of_ADC_GetConversion:
  4169                           
  4170                           	psect	intentry
  4171  0004                     __pintentry:	
  4172 ;; *************** function _INTERRUPT_InterruptManager *****************
  4173 ;; Defined at:
  4174 ;;		line 52 in file "mcc_generated_files/interrupt_manager.c"
  4175 ;; Parameters:    Size  Location     Type
  4176 ;;		None
  4177 ;; Auto vars:     Size  Location     Type
  4178 ;;		None
  4179 ;; Return value:  Size  Location     Type
  4180 ;;                  1    wreg      void 
  4181 ;; Registers used:
  4182 ;;		wreg, status,2, status,0, pclath, cstack
  4183 ;; Tracked objects:
  4184 ;;		On entry : 0/0
  4185 ;;		On exit  : 0/0
  4186 ;;		Unchanged: 0/0
  4187 ;; Data sizes:     COMMON   BANK0   BANK1   BANK2
  4188 ;;      Params:         0       0       0       0
  4189 ;;      Locals:         0       0       0       0
  4190 ;;      Temps:          0       0       0       0
  4191 ;;      Totals:         0       0       0       0
  4192 ;;Total ram usage:        0 bytes
  4193 ;; Hardware stack levels used:    1
  4194 ;; Hardware stack levels required when called:    1
  4195 ;; This function calls:
  4196 ;;		_TMR0_ISR
  4197 ;;		_ZCD_ISR
  4198 ;; This function is called by:
  4199 ;;		Interrupt level 1
  4200 ;; This function uses a non-reentrant model
  4201 ;;
  4202                           
  4203  0004                     _INTERRUPT_InterruptManager:
  4204                           
  4205                           ;incstack = 0
  4206  0004  147E               	bsf	int$flags,0	;set compiler interrupt flag (level 1)
  4207                           
  4208                           ; Regs used in _INTERRUPT_InterruptManager: [wreg+status,2+status,0+pclath+cstack]
  4209  0005  3180               	pagesel	$
  4210  0006                     i1l1341:
  4211                           
  4212                           ;mcc_generated_files/interrupt_manager.c: 55:     if(PIE0bits.TMR0IE == 1 && PIR0bits.TM
      +                          R0IF == 1)
  4213  0006  014E               	movlb	14	; select bank14
  4214  0007  1E96               	btfss	22,5	;volatile
  4215  0008  280A               	goto	u44_21
  4216  0009  280B               	goto	u44_20
  4217  000A                     u44_21:
  4218  000A  2813               	goto	i1l65
  4219  000B                     u44_20:
  4220  000B                     i1l1343:
  4221  000B  1E8C               	btfss	12,5	;volatile
  4222  000C  280E               	goto	u45_21
  4223  000D  280F               	goto	u45_20
  4224  000E                     u45_21:
  4225  000E  2813               	goto	i1l65
  4226  000F                     u45_20:
  4227  000F                     i1l1345:
  4228                           
  4229                           ;mcc_generated_files/interrupt_manager.c: 56:     {;mcc_generated_files/interrupt_manage
      +                          r.c: 57:         TMR0_ISR();
  4230  000F  3181  219C  3180   	fcall	_TMR0_ISR
  4231                           
  4232                           ;mcc_generated_files/interrupt_manager.c: 58:     }
  4233  0012  2823               	goto	i1l71
  4234  0013                     i1l65:	
  4235                           ;mcc_generated_files/interrupt_manager.c: 59:     else if(INTCONbits.PEIE == 1)
  4236                           
  4237  0013  1F0B               	btfss	11,6	;volatile
  4238  0014  2816               	goto	u46_21
  4239  0015  2817               	goto	u46_20
  4240  0016                     u46_21:
  4241  0016  2823               	goto	i1l71
  4242  0017                     u46_20:
  4243  0017                     i1l1347:
  4244                           
  4245                           ;mcc_generated_files/interrupt_manager.c: 60:     {;mcc_generated_files/interrupt_manage
      +                          r.c: 61:         if(PIE2bits.ZCDIE == 1 && PIR2bits.ZCDIF == 1)
  4246  0017  1F18               	btfss	24,6	;volatile
  4247  0018  281A               	goto	u47_21
  4248  0019  281B               	goto	u47_20
  4249  001A                     u47_21:
  4250  001A  2823               	goto	i1l70
  4251  001B                     u47_20:
  4252  001B                     i1l1349:
  4253  001B  1F0E               	btfss	14,6	;volatile
  4254  001C  281E               	goto	u48_21
  4255  001D  281F               	goto	u48_20
  4256  001E                     u48_21:
  4257  001E  2823               	goto	i1l70
  4258  001F                     u48_20:
  4259  001F                     i1l1351:
  4260                           
  4261                           ;mcc_generated_files/interrupt_manager.c: 62:         {;mcc_generated_files/interrupt_ma
      +                          nager.c: 63:             ZCD_ISR();
  4262  001F  3181  21FD  3180   	fcall	_ZCD_ISR
  4263                           
  4264                           ;mcc_generated_files/interrupt_manager.c: 64:         }
  4265  0022  2823               	goto	i1l71
  4266  0023                     i1l70:	
  4267                           ;mcc_generated_files/interrupt_manager.c: 71:     {;mcc_generated_files/interrupt_manage
      +                          r.c: 73:     }
  4268                           
  4269  0023                     i1l71:
  4270  0023  107E               	bcf	int$flags,0	;clear compiler interrupt flag (level 1)
  4271  0024  0009               	retfie
  4272  0025                     __end_of_INTERRUPT_InterruptManager:
  4273                           
  4274                           	psect	text15
  4275  01FD                     __ptext15:	
  4276 ;; *************** function _ZCD_ISR *****************
  4277 ;; Defined at:
  4278 ;;		line 66 in file "main.c"
  4279 ;; Parameters:    Size  Location     Type
  4280 ;;		None
  4281 ;; Auto vars:     Size  Location     Type
  4282 ;;		None
  4283 ;; Return value:  Size  Location     Type
  4284 ;;                  1    wreg      void 
  4285 ;; Registers used:
  4286 ;;		wreg, status,2
  4287 ;; Tracked objects:
  4288 ;;		On entry : 0/0
  4289 ;;		On exit  : 0/0
  4290 ;;		Unchanged: 0/0
  4291 ;; Data sizes:     COMMON   BANK0   BANK1   BANK2
  4292 ;;      Params:         0       0       0       0
  4293 ;;      Locals:         0       0       0       0
  4294 ;;      Temps:          0       0       0       0
  4295 ;;      Totals:         0       0       0       0
  4296 ;;Total ram usage:        0 bytes
  4297 ;; Hardware stack levels used:    1
  4298 ;; This function calls:
  4299 ;;		Nothing
  4300 ;; This function is called by:
  4301 ;;		_INTERRUPT_InterruptManager
  4302 ;; This function uses a non-reentrant model
  4303 ;;
  4304                           
  4305                           
  4306                           ;psect for function _ZCD_ISR
  4307  01FD                     _ZCD_ISR:
  4308  01FD                     i1l1291:	
  4309                           ;incstack = 0
  4310                           ; Regs used in _ZCD_ISR: [wreg+status,2]
  4311                           
  4312                           
  4313                           ;main.c: 67:     if (brojac1 > 50) {
  4314  01FD  3000               	movlw	0
  4315  01FE  0140               	movlb	0	; select bank0
  4316  01FF  0231               	subwf	_brojac1+1,w
  4317  0200  3033               	movlw	51
  4318  0201  1903               	skipnz
  4319  0202  0230               	subwf	_brojac1,w
  4320  0203  1C03               	skipc
  4321  0204  2A06               	goto	u39_21
  4322  0205  2A07               	goto	u39_20
  4323  0206                     u39_21:
  4324  0206  2A10               	goto	i1l1299
  4325  0207                     u39_20:
  4326  0207                     i1l1293:
  4327                           
  4328                           ;main.c: 71:         NCO1CONbits.N1EN = 0;
  4329  0207  014B               	movlb	11	; select bank11
  4330  0208  1392               	bcf	18,7	;volatile
  4331  0209                     i1l1295:
  4332                           
  4333                           ;main.c: 74:         brojac1 = 0;
  4334  0209  0140               	movlb	0	; select bank0
  4335  020A  01B0               	clrf	_brojac1
  4336  020B  01B1               	clrf	_brojac1+1
  4337  020C                     i1l1297:
  4338                           
  4339                           ;main.c: 75:         zadat_ugao = zadat_ugao_adc;
  4340  020C  082D               	movf	_zadat_ugao_adc+1,w
  4341  020D  00AB               	movwf	_zadat_ugao+1
  4342  020E  082C               	movf	_zadat_ugao_adc,w
  4343  020F  00AA               	movwf	_zadat_ugao
  4344  0210                     i1l1299:
  4345                           
  4346                           ;main.c: 78:     PIR2bits.ZCDIF = 0;
  4347  0210  014E               	movlb	14	; select bank14
  4348  0211  130E               	bcf	14,6	;volatile
  4349  0212                     i1l295:
  4350  0212  0008               	return
  4351  0213                     __end_of_ZCD_ISR:
  4352                           
  4353                           	psect	text16
  4354  019C                     __ptext16:	
  4355 ;; *************** function _TMR0_ISR *****************
  4356 ;; Defined at:
  4357 ;;		line 46 in file "main.c"
  4358 ;; Parameters:    Size  Location     Type
  4359 ;;		None
  4360 ;; Auto vars:     Size  Location     Type
  4361 ;;		None
  4362 ;; Return value:  Size  Location     Type
  4363 ;;                  1    wreg      void 
  4364 ;; Registers used:
  4365 ;;		wreg, status,2, status,0
  4366 ;; Tracked objects:
  4367 ;;		On entry : 0/0
  4368 ;;		On exit  : 0/0
  4369 ;;		Unchanged: 0/0
  4370 ;; Data sizes:     COMMON   BANK0   BANK1   BANK2
  4371 ;;      Params:         0       0       0       0
  4372 ;;      Locals:         0       0       0       0
  4373 ;;      Temps:          2       0       0       0
  4374 ;;      Totals:         2       0       0       0
  4375 ;;Total ram usage:        2 bytes
  4376 ;; Hardware stack levels used:    1
  4377 ;; This function calls:
  4378 ;;		Nothing
  4379 ;; This function is called by:
  4380 ;;		_INTERRUPT_InterruptManager
  4381 ;; This function uses a non-reentrant model
  4382 ;;
  4383                           
  4384                           
  4385                           ;psect for function _TMR0_ISR
  4386  019C                     _TMR0_ISR:
  4387  019C                     i1l1281:	
  4388                           ;incstack = 0
  4389                           ; Regs used in _TMR0_ISR: [wreg+status,2+status,0]
  4390                           
  4391                           
  4392                           ;main.c: 48:     PIR0bits.TMR0IF = 0;
  4393  019C  014E               	movlb	14	; select bank14
  4394  019D  128C               	bcf	12,5	;volatile
  4395  019E                     i1l1283:
  4396                           
  4397                           ;main.c: 51:     brojac1++;
  4398  019E  3001               	movlw	1
  4399  019F  0140               	movlb	0	; select bank0
  4400  01A0  07B0               	addwf	_brojac1,f
  4401  01A1  3000               	movlw	0
  4402  01A2  3DB1               	addwfc	_brojac1+1,f
  4403                           
  4404                           ;main.c: 52:     brojac2++;
  4405  01A3  3001               	movlw	1
  4406  01A4  07AE               	addwf	_brojac2,f
  4407  01A5  3000               	movlw	0
  4408  01A6  3DAF               	addwfc	_brojac2+1,f
  4409                           
  4410                           ;main.c: 56:     if ((brojac1 >= zadat_ugao) && (brojac1 <= (zadat_ugao+200)) && scr_out
      +                          _enable ) {
  4411  01A7  082B               	movf	_zadat_ugao+1,w
  4412  01A8  0231               	subwf	_brojac1+1,w
  4413  01A9  1D03               	skipz
  4414  01AA  29AD               	goto	u36_25
  4415  01AB  082A               	movf	_zadat_ugao,w
  4416  01AC  0230               	subwf	_brojac1,w
  4417  01AD                     u36_25:
  4418  01AD  1C03               	skipc
  4419  01AE  29B0               	goto	u36_21
  4420  01AF  29B1               	goto	u36_20
  4421  01B0                     u36_21:
  4422  01B0  29C9               	goto	i1l289
  4423  01B1                     u36_20:
  4424  01B1                     i1l1285:
  4425  01B1  082A               	movf	_zadat_ugao,w
  4426  01B2  3EC8               	addlw	200
  4427  01B3  00F0               	movwf	??_TMR0_ISR
  4428  01B4  3000               	movlw	0
  4429  01B5  3D2B               	addwfc	_zadat_ugao+1,w
  4430  01B6  00F1               	movwf	??_TMR0_ISR+1
  4431  01B7  0831               	movf	_brojac1+1,w
  4432  01B8  0271               	subwf	??_TMR0_ISR+1,w
  4433  01B9  1D03               	skipz
  4434  01BA  29BD               	goto	u37_25
  4435  01BB  0830               	movf	_brojac1,w
  4436  01BC  0270               	subwf	??_TMR0_ISR,w
  4437  01BD                     u37_25:
  4438  01BD  1C03               	skipc
  4439  01BE  29C0               	goto	u37_21
  4440  01BF  29C1               	goto	u37_20
  4441  01C0                     u37_21:
  4442  01C0  29C9               	goto	i1l289
  4443  01C1                     u37_20:
  4444  01C1                     i1l1287:
  4445  01C1  0834               	movf	_scr_out_enable,w
  4446  01C2  1903               	btfsc	3,2
  4447  01C3  29C5               	goto	u38_21
  4448  01C4  29C6               	goto	u38_20
  4449  01C5                     u38_21:
  4450  01C5  29C9               	goto	i1l289
  4451  01C6                     u38_20:
  4452  01C6                     i1l1289:
  4453                           
  4454                           ;main.c: 57:         NCO1CONbits.N1EN = 1;
  4455  01C6  014B               	movlb	11	; select bank11
  4456  01C7  1792               	bsf	18,7	;volatile
  4457                           
  4458                           ;main.c: 59:     } else {
  4459  01C8  29CB               	goto	i1l291
  4460  01C9                     i1l289:
  4461                           
  4462                           ;main.c: 60:         NCO1CONbits.N1EN = 0;
  4463  01C9  014B               	movlb	11	; select bank11
  4464  01CA  1392               	bcf	18,7	;volatile
  4465  01CB                     i1l291:
  4466  01CB  0008               	return
  4467  01CC                     __end_of_TMR0_ISR:
  4468  007E                     btemp	set	126	;btemp
  4469  007E                     int$flags	set	126
  4470  007E                     wtemp0	set	126
  4471                           
  4472                           	psect	config
  4473                           
  4474                           ;Config register CONFIG1 @ 0x8007
  4475                           ;	External Oscillator mode selection bits
  4476                           ;	FEXTOSC = OFF, Oscillator not enabled
  4477                           ;	Power-up default value for COSC bits
  4478                           ;	RSTOSC = HFINT1, HFINTOSC (1MHz)
  4479                           ;	Clock Out Enable bit
  4480                           ;	CLKOUTEN = OFF, CLKOUT function is disabled; i/o or oscillator function on OSC2
  4481                           ;	Clock Switch Enable bit
  4482                           ;	CSWEN = ON, Writing to NOSC and NDIV is allowed
  4483                           ;	Fail-Safe Clock Monitor Enable bit
  4484                           ;	FCMEN = ON, FSCM timer enabled
  4485  8007                     	org	32775
  4486  8007  3FEC               	dw	16364
  4487                           
  4488                           ;Config register CONFIG2 @ 0x8008
  4489                           ;	Master Clear Enable bit
  4490                           ;	MCLRE = OFF, MCLR pin function is port defined function
  4491                           ;	Power-up Timer Enable bit
  4492                           ;	PWRTE = OFF, PWRT disabled
  4493                           ;	Low-Power BOR enable bit
  4494                           ;	LPBOREN = OFF, ULPBOR disabled
  4495                           ;	Brown-out reset enable bits
  4496                           ;	BOREN = ON, Brown-out Reset Enabled, SBOREN bit is ignored
  4497                           ;	Brown-out Reset Voltage Selection
  4498                           ;	BORV = LO, Brown-out Reset Voltage (VBOR) set to 1.9V on LF, and 2.45V on F Devices
  4499                           ;	Zero-cross detect disable
  4500                           ;	ZCD = OFF, Zero-cross detect circuit is disabled at POR.
  4501                           ;	Peripheral Pin Select one-way control
  4502                           ;	PPS1WAY = ON, The PPSLOCK bit can be cleared and set only once in software
  4503                           ;	Stack Overflow/Underflow Reset Enable bit
  4504                           ;	STVREN = ON, Stack Overflow or Underflow will cause a reset
  4505  8008                     	org	32776
  4506  8008  3FFE               	dw	16382
  4507                           
  4508                           ;Config register CONFIG3 @ 0x8009
  4509                           ;	WDT Period Select bits
  4510                           ;	WDTCPS = WDTCPS_31, Divider ratio 1:65536; software control of WDTPS
  4511                           ;	WDT operating mode
  4512                           ;	WDTE = OFF, WDT Disabled, SWDTEN is ignored
  4513                           ;	WDT Window Select bits
  4514                           ;	WDTCWS = WDTCWS_7, window always open (100%); software control; keyed access not requi
      +                          red
  4515                           ;	WDT input clock selector
  4516                           ;	WDTCCS = SC, Software Control
  4517  8009                     	org	32777
  4518  8009  3F9F               	dw	16287
  4519                           
  4520                           ;Config register CONFIG4 @ 0x800A
  4521                           ;	Boot Block Size Selection bits
  4522                           ;	BBSIZE = BB512, 512 words boot block size
  4523                           ;	Boot Block Enable bit
  4524                           ;	BBEN = OFF, Boot Block disabled
  4525                           ;	SAF Enable bit
  4526                           ;	SAFEN = OFF, SAF disabled
  4527                           ;	Application Block Write Protection bit
  4528                           ;	WRTAPP = OFF, Application Block not write protected
  4529                           ;	Boot Block Write Protection bit
  4530                           ;	WRTB = OFF, Boot Block not write protected
  4531                           ;	Configuration Register Write Protection bit
  4532                           ;	WRTC = OFF, Configuration Register not write protected
  4533                           ;	Storage Area Flash Write Protection bit
  4534                           ;	WRTSAF = OFF, SAF not write protected
  4535                           ;	Low Voltage Programming Enable bit
  4536                           ;	LVP = OFF, High Voltage on MCLR/Vpp must be used for programming
  4537  800A                     	org	32778
  4538  800A  1FFF               	dw	8191
  4539                           
  4540                           ;Config register CONFIG5 @ 0x800B
  4541                           ;	UserNVM Program memory code protection bit
  4542                           ;	CP = OFF, UserNVM code protection disabled
  4543  800B                     	org	32779
  4544  800B  3FFF               	dw	16383

Data Sizes:
    Strings     0
    Constant    0
    Data        0
    BSS         151
    Persistent  34
    Stack       0

Auto Spaces:
    Space          Size  Autos    Used
    COMMON           14     10      12
    BANK0            80     11      34
    BANK1            80      0      64
    BANK2            80      0      64

Pointer List with Targets:

    ADC_InterruptHandler	PTR FTN()void  size(2) Largest target is 1
		 -> Absolute function(), 

    TMR0_SetInterruptHandler@InterruptHandler	PTR FTN()void  size(2) Largest target is 1
		 -> TMR0_DefaultInterruptHandler(), 

    TMR0_InterruptHandler	PTR FTN()void  size(2) Largest target is 1
		 -> Absolute function(), TMR0_DefaultInterruptHandler(), 


Critical Paths under _main in COMMON

    _main->_low_pass_filter_1
    _main->_low_pass_filter_2
    _low_pass_filter_2->_ADC_GetConversion
    _low_pass_filter_1->_ADC_GetConversion
    _TMR0_Initialize->_TMR0_SetInterruptHandler

Critical Paths under _INTERRUPT_InterruptManager in COMMON

    _INTERRUPT_InterruptManager->_TMR0_ISR

Critical Paths under _main in BANK0

    None.

Critical Paths under _INTERRUPT_InterruptManager in BANK0

    None.

Critical Paths under _main in BANK1

    None.

Critical Paths under _INTERRUPT_InterruptManager in BANK1

    None.

Critical Paths under _main in BANK2

    None.

Critical Paths under _INTERRUPT_InterruptManager in BANK2

    None.

Call Graph Tables:

 ---------------------------------------------------------------------------------
 (Depth) Function   	        Calls       Base Space   Used Autos Params    Refs
 ---------------------------------------------------------------------------------
 (0) _main                                                11    11      0     731
                                              0 BANK0     11    11      0
                  _ADC_GetConversion
                  _SYSTEM_Initialize
                    _TMR0_StartTimer
                  _low_pass_filter_1
                  _low_pass_filter_2
 ---------------------------------------------------------------------------------
 (1) _low_pass_filter_2                                    4     2      2     120
                                              6 COMMON     4     2      2
                  _ADC_GetConversion (ARG)
 ---------------------------------------------------------------------------------
 (1) _low_pass_filter_1                                    4     2      2     120
                                              6 COMMON     4     2      2
                  _ADC_GetConversion (ARG)
 ---------------------------------------------------------------------------------
 (1) _TMR0_StartTimer                                      0     0      0       0
 ---------------------------------------------------------------------------------
 (1) _SYSTEM_Initialize                                    0     0      0      98
                     _ADC_Initialize
                    _NCO1_Initialize
              _OSCILLATOR_Initialize
             _PIN_MANAGER_Initialize
                     _PMD_Initialize
                    _TMR0_Initialize
                     _ZCD_Initialize
 ---------------------------------------------------------------------------------
 (2) _ZCD_Initialize                                       0     0      0       0
 ---------------------------------------------------------------------------------
 (2) _TMR0_Initialize                                      0     0      0      98
           _TMR0_SetInterruptHandler
 ---------------------------------------------------------------------------------
 (3) _TMR0_SetInterruptHandler                             2     0      2      98
                                              2 COMMON     2     0      2
 ---------------------------------------------------------------------------------
 (2) _PMD_Initialize                                       0     0      0       0
 ---------------------------------------------------------------------------------
 (2) _PIN_MANAGER_Initialize                               0     0      0       0
 ---------------------------------------------------------------------------------
 (2) _OSCILLATOR_Initialize                                0     0      0       0
 ---------------------------------------------------------------------------------
 (2) _NCO1_Initialize                                      0     0      0       0
 ---------------------------------------------------------------------------------
 (2) _ADC_Initialize                                       0     0      0       0
 ---------------------------------------------------------------------------------
 (1) _ADC_GetConversion                                    4     2      2      22
                                              2 COMMON     4     2      2
 ---------------------------------------------------------------------------------
 Estimated maximum stack depth 3
 ---------------------------------------------------------------------------------
 (Depth) Function   	        Calls       Base Space   Used Autos Params    Refs
 ---------------------------------------------------------------------------------
 (4) _INTERRUPT_InterruptManager                           0     0      0       0
                           _TMR0_ISR
                            _ZCD_ISR
 ---------------------------------------------------------------------------------
 (5) _ZCD_ISR                                              0     0      0       0
 ---------------------------------------------------------------------------------
 (5) _TMR0_ISR                                             2     2      0       0
                                              0 COMMON     2     2      0
 ---------------------------------------------------------------------------------
 Estimated maximum stack depth 5
 ---------------------------------------------------------------------------------

 Call Graph Graphs:

 _main (ROOT)
   _ADC_GetConversion
   _SYSTEM_Initialize
     _ADC_Initialize
     _NCO1_Initialize
     _OSCILLATOR_Initialize
     _PIN_MANAGER_Initialize
     _PMD_Initialize
     _TMR0_Initialize
       _TMR0_SetInterruptHandler
     _ZCD_Initialize
   _TMR0_StartTimer
   _low_pass_filter_1
     _ADC_GetConversion (ARG)
   _low_pass_filter_2
     _ADC_GetConversion (ARG)

 _INTERRUPT_InterruptManager (ROOT)
   _TMR0_ISR
   _ZCD_ISR

 Address spaces:
Name               Size   Autos  Total    Cost      Usage
BIGRAM              F0      0       0       0        0.0%
NULL                 0      0       0       0        0.0%
CODE                 0      0       0       0        0.0%
BITCOMMON            E      0       0       1        0.0%
BITSFR0              0      0       0       1        0.0%
SFR0                 0      0       0       1        0.0%
COMMON               E      A       C       2       85.7%
BITSFR1              0      0       0       2        0.0%
SFR1                 0      0       0       2        0.0%
BITSFR2              0      0       0       3        0.0%
SFR2                 0      0       0       3        0.0%
STACK                0      0       0       3        0.0%
BITBANK0            50      0       0       4        0.0%
BITSFR3              0      0       0       4        0.0%
SFR3                 0      0       0       4        0.0%
BANK0               50      B      22       5       42.5%
BITSFR4              0      0       0       5        0.0%
SFR4                 0      0       0       5        0.0%
BITBANK1            50      0       0       6        0.0%
BITSFR5              0      0       0       6        0.0%
SFR5                 0      0       0       6        0.0%
BANK1               50      0      40       7       80.0%
BITSFR6              0      0       0       7        0.0%
SFR6                 0      0       0       7        0.0%
BITBANK2            50      0       0       8        0.0%
BITSFR7              0      0       0       8        0.0%
SFR7                 0      0       0       8        0.0%
BANK2               50      0      40       9       80.0%
BITSFR8              0      0       0       9        0.0%
SFR8                 0      0       0       9        0.0%
BITSFR9              0      0       0      10        0.0%
SFR9                 0      0       0      10        0.0%
ABS                  0      0      AE      10        0.0%
BITSFR10             0      0       0      11        0.0%
SFR10                0      0       0      11        0.0%
DATA                 0      0      AE      11        0.0%
BITSFR11             0      0       0      12        0.0%
SFR11                0      0       0      12        0.0%
BITSFR12             0      0       0      13        0.0%
SFR12                0      0       0      13        0.0%
BITSFR13             0      0       0      14        0.0%
SFR13                0      0       0      14        0.0%
BITSFR14             0      0       0      15        0.0%
SFR14                0      0       0      15        0.0%
BITSFR15             0      0       0      16        0.0%
SFR15                0      0       0      16        0.0%
BITSFR16             0      0       0      17        0.0%
SFR16                0      0       0      17        0.0%
BITSFR17             0      0       0      18        0.0%
SFR17                0      0       0      18        0.0%
BITSFR18             0      0       0      19        0.0%
SFR18                0      0       0      19        0.0%
BITSFR19             0      0       0      20        0.0%
SFR19                0      0       0      20        0.0%
BITSFR20             0      0       0      21        0.0%
SFR20                0      0       0      21        0.0%
BITSFR21             0      0       0      22        0.0%
SFR21                0      0       0      22        0.0%
BITSFR22             0      0       0      23        0.0%
SFR22                0      0       0      23        0.0%
BITSFR23             0      0       0      24        0.0%
SFR23                0      0       0      24        0.0%
BITSFR24             0      0       0      25        0.0%
SFR24                0      0       0      25        0.0%
BITSFR25             0      0       0      26        0.0%
SFR25                0      0       0      26        0.0%
BITSFR26             0      0       0      27        0.0%
SFR26                0      0       0      27        0.0%
BITSFR27             0      0       0      28        0.0%
SFR27                0      0       0      28        0.0%
BITSFR28             0      0       0      29        0.0%
SFR28                0      0       0      29        0.0%
BITSFR29             0      0       0      30        0.0%
SFR29                0      0       0      30        0.0%
BITSFR30             0      0       0      31        0.0%
SFR30                0      0       0      31        0.0%
BITSFR31             0      0       0      32        0.0%
SFR31                0      0       0      32        0.0%
BITSFR32             0      0       0      33        0.0%
SFR32                0      0       0      33        0.0%
BITSFR33             0      0       0      34        0.0%
SFR33                0      0       0      34        0.0%
BITSFR34             0      0       0      35        0.0%
SFR34                0      0       0      35        0.0%
BITSFR35             0      0       0      36        0.0%
SFR35                0      0       0      36        0.0%
BITSFR36             0      0       0      37        0.0%
SFR36                0      0       0      37        0.0%
BITSFR37             0      0       0      38        0.0%
SFR37                0      0       0      38        0.0%
BITSFR38             0      0       0      39        0.0%
SFR38                0      0       0      39        0.0%
BITSFR39             0      0       0      40        0.0%
SFR39                0      0       0      40        0.0%
BITSFR40             0      0       0      41        0.0%
SFR40                0      0       0      41        0.0%
BITSFR41             0      0       0      42        0.0%
SFR41                0      0       0      42        0.0%
BITSFR42             0      0       0      43        0.0%
SFR42                0      0       0      43        0.0%
BITSFR43             0      0       0      44        0.0%
SFR43                0      0       0      44        0.0%
BITSFR44             0      0       0      45        0.0%
SFR44                0      0       0      45        0.0%
BITSFR45             0      0       0      46        0.0%
SFR45                0      0       0      46        0.0%
BITSFR46             0      0       0      47        0.0%
SFR46                0      0       0      47        0.0%
BITSFR47             0      0       0      48        0.0%
SFR47                0      0       0      48        0.0%
BITSFR48             0      0       0      49        0.0%
SFR48                0      0       0      49        0.0%
BITSFR49             0      0       0      50        0.0%
SFR49                0      0       0      50        0.0%
BITSFR50             0      0       0      51        0.0%
SFR50                0      0       0      51        0.0%
BITSFR51             0      0       0      52        0.0%
SFR51                0      0       0      52        0.0%
BITSFR52             0      0       0      53        0.0%
SFR52                0      0       0      53        0.0%
BITSFR53             0      0       0      54        0.0%
SFR53                0      0       0      54        0.0%
BITSFR54             0      0       0      55        0.0%
SFR54                0      0       0      55        0.0%
BITSFR55             0      0       0      56        0.0%
SFR55                0      0       0      56        0.0%
BITSFR56             0      0       0      57        0.0%
SFR56                0      0       0      57        0.0%
BITSFR57             0      0       0      58        0.0%
SFR57                0      0       0      58        0.0%
BITSFR58             0      0       0      59        0.0%
SFR58                0      0       0      59        0.0%
BITSFR59             0      0       0      60        0.0%
SFR59                0      0       0      60        0.0%
BITSFR60             0      0       0      61        0.0%
SFR60                0      0       0      61        0.0%
BITSFR61             0      0       0      62        0.0%
SFR61                0      0       0      62        0.0%
BITSFR62             0      0       0      63        0.0%
SFR62                0      0       0      63        0.0%
BITSFR63             0      0       0      64        0.0%
SFR63                0      0       0      64        0.0%


Microchip Technology PIC Macro Assembler V2.20 build 20200408173844 
Symbol Table                                                                                   Tue Aug 18 01:58:24 2020

                                      l20 01DE                                        l23 01E6  
                                      l32 0264                                        l17 025D  
                                     l132 0255                                       l126 01FC  
                                     l151 0236                                       l216 0243  
                                     l129 024D                                       l321 0166  
                                     l308 019B                                       l341 0113  
                                     l191 0273                                       l194 0270  
                                     l188 0226                                       _RA3 0063  
                                     _RA5 0065                                       u400 0185  
                                     u401 0184                                       u420 0150  
                                     u421 014F                                       u350 01E2  
                                     u351 01E1                                       u415 0193  
                                     u435 015E                                       u700 00A2  
                                     u701 00A1                                       u710 00B0  
                                     u711 00AF                                       u800 0126  
                                     u720 00BA                                       u801 0125  
                                     u721 00B9                                       u730 00CB  
                                     u650 007E                                       u731 00CA  
                                     u651 007D                                       u740 00DA  
                                     u660 0088                                       u741 00D9  
                                     u725 00B6                                       u661 0087  
                                     u750 00E8                                       u670 0093  
                                     u751 00E7                                       u735 00C7  
                                     u671 0092                                       u655 007A  
                                     u760 00F1                                       u680 0099  
                                     u817 01D9                                       u761 00F0  
                                     u745 00D6                                       u681 0097  
                                     u770 00FE                                       u690 009A  
                                     u771 00FD                                       u780 010A  
                                     u781 0109                                       u790 011C  
                                     u791 011B                                       u775 00FA  
                 __size_of_PMD_Initialize 0008                           ?_ZCD_Initialize 0070  
                                     wreg 0009                                      l1203 026B  
                                    l1211 025E                                      l1205 0256  
                                    l1221 0229                                      l1213 0261  
                                    l1301 01E7                                      l1207 0259  
                                    l1231 0244                                      l1223 022B  
                                    l1215 0263                                      l1311 01F6  
                                    l1303 01EA                                      l1209 025A  
                                    l1241 0237                                      l1233 0247  
                                    l1225 0230                                      l1217 024E  
                                    l1313 01F9                                      l1305 01ED  
                                    l1321 0185                                      l1251 023E  
                                    l1243 0239                                      l1235 0248  
                                    l1227 0232                                      l1219 0227  
                                    l1307 01F0                                      l1315 0271  
                                    l1323 018C                                      l1331 0149  
                                    l1253 023F                                      l1245 023B  
                                    l1237 024B                                      l1229 0234  
                                    l1261 0219                                      l1309 01F3  
                                    l1325 018E                                      l1317 0167  
                                    l1333 0150                                      l1421 0046  
                                    l1271 01D7                                      l1255 0241  
                                    l1247 023C                                      l1239 024C  
                                    l1263 021B                                      l1319 017E  
                                    l1335 0157                                      l1431 007E  
                                    l1423 0047                                      l1273 01D8  
                                    l1249 023D                                      l1265 021C  
                                    l1257 0213                                      l1337 0159  
                                    l1329 0130                                      l1441 00A4  
                                    l1433 0083                                      l1425 0048  
                                    l1275 01DC                                      l1267 0223  
                                    l1259 0218                                      l1451 00CB  
                                    l1435 0088                                      l1443 00A9  
                                    l1427 004B                                      l1419 0043  
                                    l1277 01E2                                      l1269 01CD  
                                    l1461 00EC                                      l1453 00DA  
                                    l1437 0093                                      l1445 00AB  
                                    l1429 005B                                      l1471 010F  
                                    l1463 00F1                                      l1455 00DC  
                                    l1447 00B0                                      l1439 00A2  
                                    l1481 012A                                      l1473 011C  
                                    l1465 00FE                                      l1449 00BA  
                                    l1457 00DF                                      l1475 011D  
                                    l1467 0104                                      l1459 00E8  
                                    l1477 0126                                      l1469 010A  
                                    l1479 0128                                      _LATA 0018  
                                    _PMD0 0796                                      _PMD1 0797  
                                    _PMD2 0798                                      _PMD3 0799  
                                    _PMD4 079A                                      _PMD5 079B  
                                    i1l70 0023                                      i1l71 0023  
                                    i1l65 0013                                      _WPUA 1F39  
                                    _main 0043                           __end_of_ZCD_ISR 0213  
                         _TMR0_StartTimer 0271                                      fsr0h 0005  
                                    fsr1h 0007                                      indf0 0000  
                                    fsr0l 0004                                      fsr1l 0006  
                                    btemp 007E                                      start 0025  
                        ?_NCO1_Initialize 0070                   __end_of_TMR0_Initialize 0227  
          __size_of_OSCILLATOR_Initialize 000A                  low_pass_filter_1@samples 00A0  
           __end_of_OSCILLATOR_Initialize 024E                                     ?_main 0070  
                                   i1l291 01CB                                     i1l295 0212  
                                   i1l289 01C9                                     _OSCEN 0891  
                                   _TMR0H 059D                                     _TMR0L 059C  
                                   u36_20 01B1                                     u44_20 000B  
                                   u36_21 01B0                                     u44_21 000A  
                                   u36_25 01AD                                     u37_20 01C1  
                                   u45_20 000F                                     u37_21 01C0  
                                   u45_21 000E                                     u37_25 01BD  
                                   u38_20 01C6                                     u46_20 0017  
                                   u38_21 01C5                                     u46_21 0016  
                                   u39_20 0207                                     u47_20 001B  
                                   u39_21 0206                                     u47_21 001A  
                                   u48_20 001F                                     u48_21 001E  
                                   _TRISA 0012         __size_of_TMR0_SetInterruptHandler 0006  
               ?_TMR0_SetInterruptHandler 0072                          __end_of_TMR0_ISR 01CC  
                                   status 0003                                     wtemp0 007E  
                         __initialization 0026                              __end_of_main 0130  
             ?_INTERRUPT_InterruptManager 0070                                    ??_main 0035  
                 __end_of_TMR0_StartTimer 0274                                    _ADCON0 009D  
                                  _ADCON1 009E                                 ??_ZCD_ISR 0070  
                                  _ADRESH 009C                                    _ADRESL 009B  
                                  _ANSELA 1F38                                    _T0CON0 059E  
                                  _T0CON1 059F                                    _RA4PPS 1F14  
                                  i1l1341 0006                                    i1l1351 001F  
                                  i1l1343 000B                                    i1l1281 019C  
                                  i1l1345 000F                                    _ODCONA 1F3A  
                                  i1l1283 019E                                    i1l1291 01FD  
                                  i1l1347 0017                                    i1l1285 01B1  
                                  i1l1293 0207                                    i1l1349 001B  
                                  i1l1287 01C1                                    i1l1295 0209  
                                  i1l1289 01C6                                    i1l1297 020C  
                                  i1l1299 0210                                    _INLVLA 1F3C  
                                  _OSCFRQ 0893                                    _ZCDCON 091F  
                        ?_TMR0_Initialize 0070                            _PMD_Initialize 024E  
                ADC_GetConversion@channel 0075  TMR0_SetInterruptHandler@InterruptHandler 0072  
                       _SYSTEM_Initialize 01E7                   __end_of__initialization 0040  
                      ?_SYSTEM_Initialize 0070                            __pcstackCOMMON 0070  
                     ??_SYSTEM_Initialize 0074                                 ?_TMR0_ISR 0070  
                        ??_ZCD_Initialize 0072                    __end_of_PMD_Initialize 0256  
                        ?_TMR0_StartTimer 0070                 __end_of_SYSTEM_Initialize 01FD  
                              __pbssBANK0 0020                                __pbssBANK1 00A0  
                              __pbssBANK2 0120                                __pmaintext 0043  
        __end_of_TMR0_SetInterruptHandler 0271                                ??_TMR0_ISR 0070  
                              __pintentry 0004                           ?_PMD_Initialize 0070  
                 __size_of_ADC_Initialize 0008                                   _NCO1CLK 0593  
                                 _NCO1CON 0592                            _scr_out_enable 0034  
                                 _OSCCON1 088D                                   _OSCCON3 088F  
                                 _OSCSTAT 0890                                   _NVMADRH 081B  
                                 _NVMADRL 081A                                   _NVMDATH 081D  
                                 _OSCTUNE 0892                                   _NVMDATL 081C  
                                 _NVMCON2 081F                                   _SLRCONA 1F3B  
                                 _ZCD_ISR 01FD                      _ADC_InterruptHandler 0032  
                         _zadat_slope_adc 0028                  __size_of_NCO1_Initialize 000D  
                                 __ptext1 0130                                   __ptext2 0167  
                                 __ptext3 0271                                   __ptext4 01E7  
                                 __ptext5 025E                                   __ptext6 0213  
                                 __ptext7 026B                                   __ptext8 024E  
                                 __ptext9 0227                                   _brojac1 0030  
                                 _brojac2 002E                        low_pass_filter_1@i 007A  
                      low_pass_filter_1@x 0076                     _OSCILLATOR_Initialize 0244  
                ??_PIN_MANAGER_Initialize 0072                __size_of_SYSTEM_Initialize 0016  
                                 clrloop0 0266                      end_of_initialization 0040  
                          main@tmp_zadato 003E                                _zadat_ugao 002A  
                _TMR0_SetInterruptHandler 026B                   low_pass_filter_2@total1 0020  
                       __size_of_TMR0_ISR 0030                            _ADC_Initialize 0256  
                  ?_OSCILLATOR_Initialize 0070                       start_initialization 0026  
                __size_of_TMR0_Initialize 0014           __size_of_PIN_MANAGER_Initialize 0010  
                       ??_NCO1_Initialize 0072                          ??_PMD_Initialize 0072  
                  __end_of_ADC_Initialize 025E                               __pbssCOMMON 007A  
                               ___latbits 0000                             __pcstackBANK0 0035  
                                ?_ZCD_ISR 0070                     _TMR0_InterruptHandler 0040  
                               __pnvBANK0 0040                  __size_of_TMR0_StartTimer 0003  
                  _PIN_MANAGER_Initialize 0227                           ?_ADC_Initialize 0070  
            ??_INTERRUPT_InterruptManager 0072                            _zadat_ugao_adc 002C  
                       _low_pass_filter_1 0167                         _low_pass_filter_2 0130  
                             _NCO1CONbits 0592                        ?_low_pass_filter_1 0076  
                      ?_low_pass_filter_2 0076                   __size_of_ZCD_Initialize 0007  
                                _NCO1ACCH 058D                                  _NCO1ACCL 058C  
                                _NCO1ACCU 058E                                  _NCO1INCH 0590  
                                _NCO1INCL 058F                                  _NCO1INCU 0591  
                       ??_TMR0_Initialize 0074                         main@slope_counter 003C  
                     ??_low_pass_filter_1 0078                       ??_low_pass_filter_2 0078  
                               clear_ram0 0265                                  _PIE0bits 0716  
                                _PIE2bits 0718       __size_of_INTERRUPT_InterruptManager 0021  
              ??_TMR0_SetInterruptHandler 0074                                  _PIR0bits 070C  
                                _PIR2bits 070E                                  _TMR0_ISR 019C  
                              _ADCON0bits 009D                 __end_of_low_pass_filter_1 019C  
               __end_of_low_pass_filter_2 0167                 low_pass_filter_2@samples1 0120  
                  low_pass_filter_1@total 0024                          __size_of_ZCD_ISR 0016  
                       _ADC_GetConversion 01CC                   ??_OSCILLATOR_Initialize 0072  
                      ?_ADC_GetConversion 0072                         ??_TMR0_StartTimer 0072  
                         _NCO1_Initialize 0237                       ??_ADC_GetConversion 0074  
                              _T0CON0bits 059E                                  __ptext10 0244  
                                __ptext11 0237                                  __ptext12 0256  
                                __ptext13 01CC                                  __ptext15 01FD  
                                __ptext16 019C                       low_pass_filter_2@i1 0022  
                     low_pass_filter_2@x1 0076                             __size_of_main 00ED  
            _TMR0_DefaultInterruptHandler 0000                 __end_of_ADC_GetConversion 01E7  
                                int$flags 007E                       main@slope_increment 0039  
      __end_of_INTERRUPT_InterruptManager 0025                _INTERRUPT_InterruptManager 0004  
              __size_of_low_pass_filter_1 0035                __size_of_low_pass_filter_2 0037  
                         main@taster_time 0037                                _INTCONbits 000B  
                             _NVMCON1bits 081E                            _ZCD_Initialize 025E  
                                intlevel1 0000                       main@slope_up_active 003B  
                 ?_PIN_MANAGER_Initialize 0070                          ??_ADC_Initialize 0072  
                 __end_of_NCO1_Initialize 0244                    __end_of_ZCD_Initialize 0265  
                         _TMR0_Initialize 0213                               _zadat_slope 0026  
          __end_of_PIN_MANAGER_Initialize 0237                __size_of_ADC_GetConversion 001B  
